(lp1
(dp2
S'headband'
p3
I2627
sS'hats'
p4
I1077
sS'yellow'
p5
I1697
sS'bottons'
p6
I1555
sS'woods'
p7
I882
sS'asian'
p8
I1639
sS"friend's"
p9
I1891
sS'hanging'
p10
I2028
sS'attemp'
p11
I899
sS'shamble'
p12
I1520
sS'whose'
p13
I1654
sS'untie'
p14
I1766
sS'electricity'
p15
I2620
sS'tickle'
p16
I210
sS'swat'
p17
I596
sS'unroll'
p18
I1528
sS'bike'
p19
I603
sS'booties'
p20
I1863
sS'under'
p21
I90
sS'sway'
p22
I41
sS'worth'
p23
I62
sS'fists'
p24
I63
sS'swivel'
p25
I241
sS'dispense'
p26
I2074
sS'blanket'
p27
I1468
sS'rise'
p28
I1183
sS"women's"
p29
I1987
sS"bird's"
p30
I2086
sS'smack'
p31
I591
sS'jack'
p32
I2333
sS'confetti'
p33
I2050
sS'tank'
p34
I1203
sS'lbs'
p35
I2563
sS'disturb'
p36
I1102
sS'parrot'
p37
I1465
sS'wooden'
p38
I1917
sS'pinch'
p39
I745
sS'samurai'
p40
I2621
sS'crotch'
p41
I1459
sS'ups'
p42
I1395
sS'clothes'
p43
I729
sS'chew'
p44
I10
sS'force'
p45
I494
sS'eagle'
p46
I2180
sS'bacon'
p47
I1399
sS'direct'
p48
I1702
sS'pulse'
p49
I1116
sS'horn'
p50
I367
sS'nail'
p51
I1373
sS'second'
p52
I2078
sS'street'
p53
I531
sS'panda'
p54
I712
sS'monster'
p55
I1995
sS'blue'
p56
I934
sS'hide'
p57
I506
sS'fingers'
p58
I257
sS'lights'
p59
I1857
sS'drumbs'
p60
I2447
sS'above'
p61
I2623
sS'cars'
p62
I113
sS'new'
p63
I2501
sS'pawed'
p64
I582
sS'crunch'
p65
I423
sS'crouch'
p66
I1998
sS'chins'
p67
I1756
sS'pancakes'
p68
I725
sS'men'
p69
I288
sS'here'
p70
I68
sS'active'
p71
I2599
sS'cubical'
p72
I677
sS'kids'
p73
I2213
sS'shoulers'
p74
I2088
sS'luggage'
p75
I1387
sS'items'
p76
I1748
sS'leaves'
p77
I1966
sS'tv'
p78
I1631
sS'smoke'
p79
I416
sS"someone's"
p80
I485
sS'eyebrows'
p81
I413
sS'hunch'
p82
I1586
sS'vaults'
p83
I1862
sS'straw'
p84
I1195
sS'exercise'
p85
I2308
sS'hobble'
p86
I1681
sS'cane'
p87
I1590
sS'punching'
p88
I902
sS'glance'
p89
I608
sS'bra'
p90
I1997
sS'opponents'
p91
I2613
sS'swings'
p92
I2526
sS'lilps'
p93
I2547
sS'fingernails'
p94
I2347
sS'sweater'
p95
I1412
sS'coins'
p96
I2386
sS'arms'
p97
I25
sS'bleed'
p98
I1393
sS'music'
p99
I585
sS'chinchilla'
p100
I2172
sS'strike'
p101
I1482
sS'type'
p102
I1180
sS'blueberry'
p103
I710
sS'breathe'
p104
I1263
sS'saber'
p105
I1899
sS'expose'
p106
I1140
sS'training'
p107
I2322
sS'award'
p108
I76
sS'lunge'
p109
I657
sS'phone'
p110
I38
sS"blue's"
p111
I736
sS'adult'
p112
I2615
sS'breaths'
p113
I1619
sS'hole'
p114
I2491
sS'hold'
p115
I227
sS'blindfold'
p116
I1648
sS'shoot'
p117
I680
sS'peekaboo'
p118
I1043
sS'bunnies'
p119
I2141
sS'room'
p120
I1964
sS'work'
p121
I123
sS'eclipse'
p122
I1584
sS'worm'
p123
I1774
sS'roof'
p124
I1315
sS'locker'
p125
I1958
sS'cuddle'
p126
I1176
sS'elbow'
p127
I1611
sS'exhale'
p128
I415
sS'plunger'
p129
I2483
sS'transition'
p130
I1530
sS'foodie'
p131
I1663
sS'wand'
p132
I1352
sS'give'
p133
I214
sS'nozzle'
p134
I1609
sS'dolphin'
p135
I1225
sS'motocycle'
p136
I1578
sS'dragons'
p137
I2624
sS'madonna'
p138
I2194
sS'brest'
p139
I909
sS'end'
p140
I932
sS'pogo'
p141
I419
sS'thing'
p142
I2576
sS'travel'
p143
I1164
sS'braids'
p144
I2415
sS'machine'
p145
I497
sS'very'
p146
I2346
sS'hot'
p147
I2030
sS'drummer'
p148
I1023
sS'bunt'
p149
I898
sS'hop'
p150
I373
sS'airquote'
p151
I758
sS'cheetah'
p152
I2472
sS'chase'
p153
I1751
sS'beach'
p154
I157
sS'pizza'
p155
I610
sS'mess'
p156
I541
sS'ladder'
p157
I248
sS'after'
p158
I648
sS'jumping'
p159
I1759
sS'lay'
p160
I764
sS'sparkler'
p161
I2365
sS'lap'
p162
I656
sS'attempt'
p163
I1198
sS'third'
p164
I2307
sS'pulsate'
p165
I1972
sS'wink'
p166
I316
sS'upside'
p167
I1084
sS'enter'
p168
I862
sS"panda's"
p169
I841
sS'wing'
p170
I1058
sS'wind'
p171
I452
sS'wine'
p172
I554
sS'cymbols'
p173
I2080
sS'flippers'
p174
I2410
sS"singer's"
p175
I1551
sS'pelican'
p176
I1787
sS'over'
p177
I56
sS'clench'
p178
I622
sS'oven'
p179
I2317
sS'keyboard'
p180
I674
sS'windshield'
p181
I2010
sS'before'
p182
I490
sS'somewhere'
p183
I47
sS'fix'
p184
I897
sS'carve'
p185
I1170
sS'fin'
p186
I848
sS'split'
p187
I99
sS'coffee'
p188
I1163
sS'collide'
p189
I1271
sS'break'
p190
I481
sS'band'
p191
I787
sS'bang'
p192
I265
sS'giraffe'
p193
I2188
sS'velcro'
p194
I2158
sS'interrupt'
p195
I1087
sS'blink'
p196
I224
sS'silver'
p197
I1823
sS'bread'
p198
I1129
sS'meat'
p199
I1801
sS'potatoes'
p200
I2380
sS'rocks'
p201
I2492
sS'explode'
p202
I1152
sS'filling'
p203
I930
sS'victory'
p204
I1513
sS'arrow'
p205
I2229
sS'each'
p206
I347
sS'hurdle'
p207
I2567
sS'side'
p208
I144
sS'bone'
p209
I1615
sS'lifted'
p210
I1073
sS'hanger'
p211
I2404
sS'snakes'
p212
I1834
sS'spider'
p213
I342
sS'sled'
p214
I1577
sS'lifter'
p215
I1814
sS'juggling'
p216
I1374
sS'navy'
p217
I2597
sS'ring'
p218
I473
sS'whip'
p219
I465
sS'clothe'
p220
I522
sS'pounce'
p221
I515
sS'snail'
p222
I2187
sS'driving'
p223
I2478
sS'smirk'
p224
I1223
sS'mitts'
p225
I2626
sS'passengers'
p226
I1161
sS'forth'
p227
I108
sS'sliding'
p228
I1770
sS'sheep'
p229
I1391
sS'turning'
p230
I2220
sS'waddle'
p231
I953
sS'fave'
p232
I1840
sS'struggle'
p233
I149
sS'grapes'
p234
I2132
sS'putts'
p235
I2465
sS'kit'
p236
I2018
sS'knit'
p237
I1123
sS'lollipop'
p238
I1880
sS"bear's"
p239
I1282
sS'aisle'
p240
I2069
sS'soda'
p241
I1982
sS'cucumber'
p242
I2508
sS'onto'
p243
I1686
sS'chakle'
p244
I788
sS"mans's"
p245
I653
sS'shopper'
p246
I2311
sS'hoop'
p247
I573
sS'puck'
p248
I1184
sS'veggie'
p249
I1188
sS'hoot'
p250
I1208
sS'wash'
p251
I1142
sS'spinning'
p252
I1644
sS'downside'
p253
I1122
sS'another'
p254
I79
sS'bicycle'
p255
I1676
sS'hoof'
p256
I2076
sS'hood'
p257
I1558
sS'centrifuge'
p258
I2051
sS'basketball'
p259
I482
sS'top'
p260
I500
sS'neck'
p261
I1217
sS'girls'
p262
I213
sS'twisted'
p263
I470
sS'vibrate'
p264
I34
sS'blowned'
p265
I2176
sS'master'
p266
I1799
sS'fumble'
p267
I830
sS'inflate'
p268
I1752
sS'legs'
p269
I145
sS'dogs'
p270
I957
sS"rabbit's"
p271
I2221
sS'toe'
p272
I1664
sS'kiwi'
p273
I1819
sS'ceiling'
p274
I1414
sS'emblem'
p275
I2541
sS'feathers'
p276
I2559
sS'tool'
p277
I746
sS'serve'
p278
I551
sS'lower'
p279
I690
sS'cereal'
p280
I1849
sS'crawl'
p281
I530
sS'tires'
p282
I1562
sS'icicle'
p283
I1252
sS'tree'
p284
I375
sS'seated'
p285
I2600
sS'shower'
p286
I2395
sS'flame'
p287
I1015
sS'friend'
p288
I1278
sS'iron'
p289
I2493
sS'mini'
p290
I1413
sS'donkey'
p291
I2260
sS'anus'
p292
I1782
sS'ran'
p293
I409
sS'paddles'
p294
I2306
sS'rat'
p295
I1456
sS'seed'
p296
I1813
sS'nipples'
p297
I2450
sS'push-ups'
p298
I1243
sS'necktie'
p299
I666
sS'snow'
p300
I498
sS'snot'
p301
I2251
sS'curly-haired'
p302
I1510
sS'chest'
p303
I398
sS'ribbon'
p304
I2183
sS'doors'
p305
I1422
sS'rides'
p306
I2324
sS'snowflake'
p307
I1319
sS'circles'
p308
I990
sS"girl's"
p309
I1455
sS'wrists'
p310
I1339
sS'object'
p311
I392
sS'phonograph'
p312
I1178
sS'dial'
p313
I617
sS'mouth'
p314
I232
sS'baricade'
p315
I863
sS'letter'
p316
I2171
sS'coin'
p317
I2546
sS'jean'
p318
I1236
sS"fan's"
p319
I1996
sS'singer'
p320
I786
sS'pointe'
p321
I2354
sS'flop'
p322
I1247
sS'flow'
p323
I1155
sS'dog'
p324
I191
sS'releves'
p325
I1729
sS'sun'
p326
I1533
sS'hotdog'
p327
I2340
sS'scream'
p328
I379
sS'dot'
p329
I1871
sS'yank'
p330
I776
sS'bomb'
p331
I831
sS'lyrics'
p332
I2314
sS'random'
p333
I1241
sS'skitter'
p334
I1093
sS'colors'
p335
I1428
sS'radio'
p336
I1749
sS'peddle'
p337
I1090
sS'toast'
p338
I1711
sS'flowers'
p339
I1973
sS"baby's"
p340
I740
sS'bust'
p341
I1944
sS'sugar'
p342
I1536
sS'cougar'
p343
I1683
sS'knuckle'
p344
I1118
sS'touched'
p345
I1415
sS'folder'
p346
I1784
sS'rice'
p347
I1692
sS'wearing'
p348
I704
sS'do'
p349
I5
sS'tiles'
p350
I1440
sS'sunglasses'
p351
I1216
sS'colorful'
p352
I2504
sS'wide'
p353
I571
sS'watch'
p354
I311
sS'foremost'
p355
I1970
sS'pocket'
p356
I1240
sS'watermelon'
p357
I1171
sS'wedding'
p358
I2020
sS'toungue'
p359
I1458
sS'net'
p360
I1809
sS'bumpy'
p361
I1936
sS'bat'
p362
I850
sS"owner's"
p363
I1064
sS'tights'
p364
I1542
sS'boarder'
p365
I2375
sS'patch'
p366
I2393
sS'bag'
p367
I599
sS'eyelids'
p368
I644
sS'discs'
p369
I2063
sS'shots'
p370
I2357
sS'release'
p371
I1701
sS'flutter'
p372
I1658
sS'steam'
p373
I2436
sS'ears'
p374
I625
sS'habit'
p375
I1651
sS'nut'
p376
I575
sS'splayed'
p377
I1432
sS'nun'
p378
I2294
sS'stetch'
p379
I1727
sS'flashed'
p380
I1313
sS'noodles'
p381
I244
sS'hammer'
p382
I1481
sS'hairbrush'
p383
I1690
sS'wingles'
p384
I1788
sS'away'
p385
I341
sS'rings'
p386
I567
sS'mud'
p387
I1121
sS'mug'
p388
I2117
sS'score'
p389
I2639
sS'finger'
p390
I107
sS'princess'
p391
I2350
sS'shaver'
p392
I2348
sS'approach'
p393
I976
sS'pirate'
p394
I965
sS'360'
p395
I1838
sS'wears'
p396
I1126
sS'extend'
p397
I640
sS'handful'
p398
I1008
sS'toothbrush'
p399
I546
sS'loading'
p400
I2511
sS'wear'
p401
I526
sS'unfold'
p402
I987
sS'wheelbarrow'
p403
I1540
sS'touchpad'
p404
I1545
sS'surfer'
p405
I2157
sS'roller'
p406
I939
sS'cop'
p407
I2573
sS'cow'
p408
I1174
sS'eyedrops'
p409
I2283
sS'eyeball'
p410
I757
sS'jelly'
p411
I1649
sS'against'
p412
I1069
sS'bodysuit'
p413
I2482
sS'high-five'
p414
I1098
sS'players'
p415
I2007
sS'cob'
p416
I2127
sS'faces'
p417
I876
sS'widen'
p418
I1495
sS'spear'
p419
I2631
sS'appeared'
p420
I2144
sS'character'
p421
I221
sS'cobble'
p422
I1325
sS'2nd'
p423
I1497
sS'springy'
p424
I2304
sS'towels'
p425
I1388
sS'blonde'
p426
I999
sS'heals'
p427
I2169
sS'hitler'
p428
I1919
sS'speak'
p429
I377
sS'bathroom'
p430
I1105
sS'lightly'
p431
I2017
sS'ropes'
p432
I2270
sS'smash'
p433
I1484
sS'parsley'
p434
I1082
sS'upside-down'
p435
I2426
sS'beer'
p436
I1763
sS'trigger'
p437
I1897
sS"left's"
p438
I1552
sS'basin'
p439
I713
sS'tallest'
p440
I2584
sS'teenager'
p441
I2060
sS'baloon'
p442
I2329
sS'spit'
p443
I443
sS'droplets'
p444
I771
sS'worker'
p445
I2618
sS'teenagers'
p446
I2405
sS'lift'
p447
I456
sS'hoist'
p448
I754
sS'child'
p449
I411
sS'catch'
p450
I529
sS'spin'
p451
I161
sS'spim'
p452
I1974
sS'harms'
p453
I250
sS'drumset'
p454
I1603
sS'shrink'
p455
I2238
sS'air'
p456
I328
sS'lizard'
p457
I1350
sS'thrash'
p458
I330
sS'balance'
p459
I1714
sS'armband'
p460
I2370
sS'cons'
p461
I28
sS'is'
p462
I838
sS'it'
p463
I1214
sS'player'
p464
I664
sS'tissue'
p465
I1557
sS'cans'
p466
I1020
sS'in'
p467
I65
sS'violin'
p468
I303
sS'astronaut'
p469
I2034
sS'mouse'
p470
I1479
sS'id'
p471
I1316
sS'if'
p472
I959
sS'growl'
p473
I1687
sS'bottles'
p474
I1951
sS'nike'
p475
I2191
sS'perform'
p476
I1626
sS'things'
p477
I750
sS'make'
p478
I291
sS'forehead'
p479
I1443
sS'belly'
p480
I1096
sS'vegetable'
p481
I2052
sS'plates'
p482
I1110
sS'bunny'
p483
I982
sS'wheel'
p484
I886
sS'outstretch'
p485
I557
sS'moose'
p486
I1588
sS'rail'
p487
I2240
sS'eyeshadow'
p488
I1953
sS'rain'
p489
I2239
sS'hand'
p490
I44
sS'hooded'
p491
I2440
sS'characters'
p492
I2131
sS'unicorn'
p493
I2424
sS'nip'
p494
I1288
sS'nit'
p495
I1777
sS'kid'
p496
I80
sS'butter'
p497
I2524
sS'drip'
p498
I1525
sS'contact'
p499
I1712
sS'tombstone'
p500
I1856
sS'mother'
p501
I840
sS'clerk'
p502
I2531
sS'the'
p503
I3
sS'musical'
p504
I1811
sS'left'
p505
I14
sS'gody'
p506
I2095
sS'athletic'
p507
I2510
sS'photo'
p508
I298
sS'laptop'
p509
I673
sS'moonwalk'
p510
I669
sS'rodent'
p511
I1792
sS'fighters'
p512
I2067
sS'thumbs'
p513
I300
sS'human'
p514
I719
sS'yes'
p515
I1677
sS'brandish'
p516
I1287
sS'snout'
p517
I2094
sS'nudge'
p518
I1435
sS'han'
p519
I1089
sS'had'
p520
I424
sS'shout'
p521
I566
sS'spread'
p522
I1111
sS'board'
p523
I323
sS'contestant'
p524
I2505
sS'hat'
p525
I670
sS'photographed'
p526
I1638
sS'bdoy'
p527
I2027
sS'feets'
p528
I804
sS'credit'
p529
I2321
sS'looks'
p530
I1040
sS'boxes'
p531
I2226
sS'boxer'
p532
I651
sS'pepperornoi'
p533
I1769
sS'background'
p534
I696
sS'cape'
p535
I654
sS'shadow'
p536
I727
sS'apart'
p537
I884
sS'shoulder'
p538
I912
sS'cooler'
p539
I2241
sS'performing'
p540
I1976
sS'zoom'
p541
I796
sS'unsuspecting'
p542
I2299
sS'tee-shirt'
p543
I2383
sS'pavement'
p544
I1571
sS'steps'
p545
I74
sS'officer'
p546
I2609
sS'zombies'
p547
I2497
sS'surf'
p548
I1673
sS'right'
p549
I16
sS'old'
p550
I1189
sS'crowd'
p551
I941
sS'people'
p552
I583
sS'crown'
p553
I2236
sS'elderly'
p554
I2582
sS'sponge'
p555
I1354
sS'hassle'
p556
I2562
sS'flatten'
p557
I624
sS'escape'
p558
I1308
sS'dear'
p559
I2500
sS'creep'
p560
I1731
sS'for'
p561
I152
sS'bottom'
p562
I216
sS'purple'
p563
I988
sS'fox'
p564
I873
sS'headshake'
p565
I1633
sS'ice'
p566
I734
sS'filming'
p567
I1382
sS'treadmill'
p568
I913
sS'skateboarder'
p569
I1567
sS'tamburine'
p570
I2568
sS'cord'
p571
I1641
sS'peek'
p572
I132
sS'shaker'
p573
I1646
sS'bold'
p574
I2014
sS'peel'
p575
I1705
sS'lefts'
p576
I925
sS'finguer'
p577
I915
sS'corn'
p578
I544
sS'trampoline'
p579
I760
sS'lamps'
p580
I2459
sS'bolt'
p581
I2596
sS'peer'
p582
I2513
sS'post'
p583
I1800
sS'trophy'
p584
I1291
sS'slither'
p585
I1086
sS'cowboy'
p586
I1918
sS'meow'
p587
I1776
sS'ribs'
p588
I2330
sS'shield'
p589
I2586
sS'magazine'
p590
I1948
sS'twitch'
p591
I365
sS'slightly'
p592
I399
sS'sob'
p593
I1016
sS'sheets'
p594
I2120
sS'float'
p595
I2351
sS'tamberine'
p596
I1417
sS'down'
p597
I176
sS'fumes'
p598
I818
sS'clomp'
p599
I1969
sS'bats'
p600
I1992
sS'raises'
p601
I1248
sS'wrap'
p602
I893
sS'petting'
p603
I1088
sS'insult'
p604
I1446
sS'stumble'
p605
I707
sS"animal's"
p606
I805
sS'wan'
p607
I2544
sS'deal'
p608
I387
sS'wag'
p609
I42
sS'tennis'
p610
I685
sS'sunlight'
p611
I1512
sS'fight'
p612
I1882
sS'ramps'
p613
I1990
sS"boy's"
p614
I2255
sS'way'
p615
I1404
sS'overhead'
p616
I991
sS'was'
p617
I1628
sS'war'
p618
I86
sS'fork'
p619
I1138
sS'head'
p620
I33
sS'form'
p621
I1347
sS'offer'
p622
I1700
sS'fireworks'
p623
I131
sS'hear'
p624
I1401
sS'otter'
p625
I2159
sS'inside'
p626
I296
sS'his/her'
p627
I803
sS'attached'
p628
I839
sS'crystal'
p629
I1816
sS'sratch'
p630
I1805
sS'dare'
p631
I1356
sS'trim'
p632
I1939
sS'horses'
p633
I1514
sS'later'
p634
I2284
sS'sticks'
p635
I936
sS'ddog'
p636
I2275
sS'forearm'
p637
I1908
sS'toss'
p638
I195
sS'sidestep'
p639
I208
sS'ship'
p640
I2090
sS'mold'
p641
I2494
sS'trip'
p642
I1000
sS'shit'
p643
I2098
sS'looked'
p644
I1192
sS'holy'
p645
I1911
sS'dotted'
p646
I2130
sS'no'
p647
I570
sS'glacier'
p648
I1080
sS'stake'
p649
I2253
sS'tip'
p650
I198
sS'actor'
p651
I2264
sS'zany'
p652
I1257
sS'holding'
p653
I555
sS'papers'
p654
I1521
sS'tie'
p655
I1267
sS'smell'
p656
I1256
sS'roll'
p657
I156
sS'picture'
p658
I1572
sS'palms'
p659
I860
sS'rubberband'
p660
I2190
sS'football'
p661
I1384
sS'stoke'
p662
I1385
sS'longer'
p663
I2265
sS'bullet'
p664
I2516
sS'glass'
p665
I553
sS'together'
p666
I565
sS'jacket'
p667
I209
sS'carts'
p668
I2112
sS'gyrate'
p669
I348
sS'teeth'
p670
I935
sS'push'
p671
I178
sS'fasten'
p672
I1616
sS'backward'
p673
I513
sS'coach'
p674
I2337
sS'chain'
p675
I888
sS'dance'
p676
I160
sS'skip'
p677
I61
sS'skis'
p678
I1810
sS'rod'
p679
I247
sS'focus'
p680
I2114
sS'skateboarded'
p681
I2514
sS'switches'
p682
I2427
sS'crocodile'
p683
I2466
sS'shimmy'
p684
I339
sS'microwave'
p685
I866
sS'skin'
p686
I1338
sS'trashcan'
p687
I1847
sS'chair'
p688
I242
sS'skid'
p689
I1037
sS'row'
p690
I1865
sS'tounge'
p691
I1139
sS'hump'
p692
I343
sS'flash'
p693
I724
sS'skateboards'
p694
I1720
sS'crates'
p695
I1302
sS'waterguns'
p696
I2518
sS'charge'
p697
I2116
sS'melon'
p698
I2453
sS'hammers'
p699
I1375
sS'eybrows'
p700
I2288
sS'brown'
p701
I393
sS'smartphone'
p702
I2399
sS'string'
p703
I811
sS'jerk'
p704
I444
sS'kitten'
p705
I358
sS'cook'
p706
I2565
sS'cyan'
p707
I2129
sS'blast'
p708
I337
sS'brows'
p709
I1508
sS'tear'
p710
I744
sS'turns'
p711
I655
sS'dig'
p712
I138
sS'posts'
p713
I1737
sS'gun'
p714
I162
sS'gum'
p715
I880
sS'item'
p716
I1537
sS'grimace'
p717
I907
sS'teal'
p718
I2475
sS'team'
p719
I1304
sS'guy'
p720
I462
sS'dip'
p721
I731
sS'round'
p722
I1372
sS'shave'
p723
I684
sS'upper'
p724
I1292
sS'blade'
p725
I1844
sS'sigh'
p726
I1370
sS'sign'
p727
I170
sS'run'
p728
I283
sS'drinks'
p729
I971
sS'headset'
p730
I2259
sS'appear'
p731
I349
sS'convulse'
p732
I141
sS'uniform'
p733
I1887
sS'wriggle'
p734
I711
sS'goer'
p735
I2379
sS'ground'
p736
I268
sS'badge'
p737
I2394
sS'pose'
p738
I235
sS'banister'
p739
I2312
sS'wail'
p740
I1650
sS'hairs'
p741
I1177
sS'makeup'
p742
I1526
sS'french'
p743
I2267
sS'costumes'
p744
I2570
sS'water'
p745
I281
sS'slow'
p746
I1548
sS'baseball'
p747
I929
sS'frosting'
p748
I1232
sS'hoops'
p749
I1718
sS'haird'
p750
I488
sS'change'
p751
I236
sS'box'
p752
I592
sS'buck'
p753
I1194
sS'shove'
p754
I659
sS'bop'
p755
I816
sS'shift'
p756
I147
sS'muscleman'
p757
I2534
sS'bow'
p758
I639
sS'bangs'
p759
I1131
sS'raccoon'
p760
I1289
sS'boa'
p761
I1867
sS'bob'
p762
I188
sS'backstep'
p763
I1661
sS'pillow'
p764
I340
sS'massage'
p765
I1522
sS'bog'
p766
I1637
sS'teenage'
p767
I1952
sS'tuxedo'
p768
I1876
sS'kayak'
p769
I2361
sS'keeper'
p770
I2642
sS'snowboard'
p771
I1505
sS'stings'
p772
I944
sS'fake'
p773
I756
sS'pony'
p774
I2295
sS'forefront'
p775
I2606
sS'bended'
p776
I1728
sS'dangle'
p777
I590
sS'dude'
p778
I1472
sS'tears'
p779
I2084
sS'handles'
p780
I1684
sS'somersault'
p781
I372
sS'sharpen'
p782
I1343
sS'swagger'
p783
I1771
sS'prep'
p784
I2564
sS'hockey'
p785
I2417
sS'plug'
p786
I1804
sS'conductor'
p787
I2023
sS'club'
p788
I1003
sS'chocolate'
p789
I1355
sS'carnival'
p790
I2125
sS'dumbell'
p791
I2326
sS'flapping'
p792
I2610
sS'cases'
p793
I1901
sS'mascot'
p794
I1425
sS'fly'
p795
I1001
sS'skaters'
p796
I2601
sS'car'
p797
I672
sS'pretend'
p798
I135
sS'cat'
p799
I165
sS'soup'
p800
I2266
sS'can'
p801
I518
sS'making'
p802
I118
sS'sidways'
p803
I2182
sS'bites'
p804
I243
sS'heart'
p805
I293
sS'performer'
p806
I1273
sS'stream'
p807
I772
sS'chip'
p808
I2298
sS'near'
p809
I1463
sS'parachute'
p810
I1449
sS'drawer'
p811
I1833
sS'stroke'
p812
I508
sS'chin'
p813
I825
sS'clothing'
p814
I549
sS'airplane'
p815
I2224
sS'chid'
p816
I1781
sS'pink'
p817
I920
sS'rubix'
p818
I382
sS'skater'
p819
I2230
sS'tilt'
p820
I77
sS'ping'
p821
I774
sS'write'
p822
I833
sS'fourth'
p823
I345
sS'skates'
p824
I843
sS'pins'
p825
I1734
sS'product'
p826
I2454
sS'mat'
p827
I357
sS'cocktail'
p828
I1647
sS'dive'
p829
I2031
sS'tipped'
p830
I2225
sS'mad'
p831
I1956
sS'suck'
p832
I1407
sS'headscarf'
p833
I1104
sS'lifting'
p834
I2616
sS'man'
p835
I21
sS'reposition'
p836
I1614
sS'branches'
p837
I997
sS'waist'
p838
I230
sS'liquid'
p839
I580
sS'beam'
p840
I2024
sS'drumsticks'
p841
I493
sS'chef'
p842
I2056
sS'switch'
p843
I919
sS'truck'
p844
I864
sS'african'
p845
I468
sS'basket'
p846
I992
sS'tall'
p847
I1984
sS"object's"
p848
I1439
sS'talk'
p849
I57
sS'cute'
p850
I2011
sS'comfort'
p851
I2258
sS'shoes'
p852
I1196
sS'pointed'
p853
I2315
sS'shake'
p854
I12
sS'turnlight'
p855
I359
sS'pointer'
p856
I2556
sS'birds'
p857
I1108
sS'dreading'
p858
I1895
sS'jig'
p859
I1048
sS'tending'
p860
I2319
sS'group'
p861
I1348
sS'thumb'
p862
I211
sS'curly'
p863
I1034
sS'cheerleaders'
p864
I2512
sS'window'
p865
I834
sS'fright'
p866
I2044
sS'waggle'
p867
I815
sS'tiara'
p868
I1500
sS'fling'
p869
I597
sS'nod'
p870
I93
sS'rake'
p871
I1965
sS'touching'
p872
I859
sS'tails'
p873
I1280
sS'half'
p874
I769
sS'not'
p875
I1955
sS'hall'
p876
I2201
sS'runners'
p877
I2145
sS'execute'
p878
I2605
sS'lies'
p879
I2633
sS'servant'
p880
I2152
sS'scooters'
p881
I2550
sS'drop'
p882
I289
sS'bowling'
p883
I1046
sS'quarter'
p884
I2641
sS'turtle'
p885
I1368
sS'square'
p886
I1006
sS'eyelid'
p887
I2037
sS"helicopter's"
p888
I1757
sS'sprinkle'
p889
I1625
sS'goose'
p890
I116
sS'skydiver'
p891
I2542
sS'zeroes'
p892
I2107
sS'girl'
p893
I226
sS'bonehead'
p894
I2121
sS'canvas'
p895
I1830
sS'container'
p896
I972
sS'stitch'
p897
I1993
sS'3rd'
p898
I2302
sS'space'
p899
I2359
sS'cycle'
p900
I2124
sS'undulate'
p901
I177
sS'looking'
p902
I2100
sS'transforming'
p903
I2134
sS'penguins'
p904
I2644
sS'receiving'
p905
I631
sS'shows'
p906
I2468
sS'tweeze'
p907
I1405
sS'maneuver'
p908
I861
sS'hula'
p909
I572
sS'octopus'
p910
I1935
sS'sideways'
p911
I445
sS'boobs'
p912
I1859
sS'cart'
p913
I780
sS'mime'
p914
I1886
sS'vinyl'
p915
I2246
sS'headbang'
p916
I1215
sS'cough'
p917
I980
sS'orb'
p918
I2464
sS'card'
p919
I1317
sS'fabric'
p920
I1994
sS'underwear'
p921
I1885
sS'language'
p922
I1494
sS'backside'
p923
I1599
sS'flare'
p924
I1165
sS'buzzer'
p925
I2553
sS'headphones'
p926
I642
sS'hoola'
p927
I742
sS'motion'
p928
I1531
sS'turn'
p929
I102
sS'place'
p930
I528
sS'footwear'
p931
I1957
sS'swing'
p932
I103
sS'view'
p933
I1026
sS'teammates'
p934
I2419
sS'first'
p935
I1030
sS'cheese'
p936
I794
sS'flying'
p937
I2142
sS'zag'
p938
I1366
sS'disburse'
p939
I1230
sS'carry'
p940
I189
sS'message'
p941
I1128
sS'open'
p942
I318
sS'peddles'
p943
I638
sS'little'
p944
I602
sS'sheet'
p945
I1147
sS'bite'
p946
I172
sS'plastic'
p947
I1418
sS'2'
I81
sS'stuffed'
p948
I1167
sS'typing'
p949
I2467
sS'white'
p950
I134
sS'puddle'
p951
I1433
sS'mermaid'
p952
I714
sS'gives'
p953
I2430
sS'fingrs'
p954
I878
sS'eyes'
p955
I127
sS'hug'
p956
I548
sS'that'
p957
I1144
sS"men's"
p958
I1362
sS'butt'
p959
I354
sS'peck'
p960
I190
sS'than'
p961
I52
sS'10'
p962
I49
sS'television'
p963
I1612
sS'12'
p964
I2310
sS'man/woman'
p965
I1892
sS'knives'
p966
I1344
sS'cymbals'
p967
I2025
sS'cards'
p968
I389
sS'tractor'
p969
I2004
sS'and'
p970
I15
sS'coconut'
p971
I2429
sS'lick'
p972
I370
sS'angel'
p973
I2636
sS'parking'
p974
I2358
sS'slap'
p975
I429
sS'say'
p976
I148
sS'slam'
p977
I949
sS'pastry'
p978
I2344
sS'saw'
p979
I983
sS'any'
p980
I179
sS'sat'
p981
I2603
sS'squat'
p982
I594
sS'pirouette'
p983
I1755
sS'scartch'
p984
I1052
sS'knead'
p985
I325
sS'aside'
p986
I507
sS'shocked'
p987
I1035
sS'note'
p988
I738
sS'equipment'
p989
I1666
sS'take'
p990
I73
sS'green'
p991
I1067
sS'tambourine'
p992
I1119
sS'butterfly'
p993
I48
sS'printer'
p994
I1166
sS'track'
p995
I1051
sS'compress'
p996
I1336
sS'zigzag'
p997
I504
sS'printed'
p998
I2254
sS'sunglass'
p999
I1722
sS'knee'
p1000
I686
sS'pages'
p1001
I428
sS'dragonfly'
p1002
I2579
sS'cloth'
p1003
I1490
sS'napkin'
p1004
I1044
sS'drive'
p1005
I952
sS'tooth'
p1006
I2185
sS'aerosol'
p1007
I940
sS'squint'
p1008
I634
sS'axe'
p1009
I1883
sS'hedgehog'
p1010
I1905
sS'slope'
p1011
I933
sS'walking'
p1012
I853
sS'show'
p1013
I414
sS'bright'
p1014
I1211
sS'shoe'
p1015
I433
sS'air-drawing'
p1016
I109
sS'pump'
p1017
I217
sS'corner'
p1018
I1927
sS'data'
p1019
I2148
sS'crane'
p1020
I1848
sS'trot'
p1021
I302
sS'snack'
p1022
I1218
sS'dice'
p1023
I2045
sS'stair'
p1024
I259
sS'title'
p1025
I1698
sS'jolt'
p1026
I1335
sS'gulp'
p1027
I2278
sS'foward'
p1028
I1204
sS'oponent'
p1029
I2064
sS'wood'
p1030
I1845
sS'black'
p1031
I467
sS'go-cart'
p1032
I2273
sS'school'
p1033
I2536
sS'robe'
p1034
I2489
sS'pumpkin'
p1035
I297
sS'bridge'
p1036
I2200
sS'hippo'
p1037
I1888
sS'explosion'
p1038
I2528
sS'get'
p1039
I320
sS'stomp'
p1040
I151
sS'nearly'
p1041
I2174
sS'lighter'
p1042
I417
sS'kness'
p1043
I1943
sS'gem'
p1044
I252
sS'artist'
p1045
I1527
sS'leather'
p1046
I533
sS'naked'
p1047
I2371
sS'priest'
p1048
I1910
sS'bombs'
p1049
I1989
sS'dough'
p1050
I986
sS'tent'
p1051
I2589
sS'burst'
p1052
I1300
sS'seat'
p1053
I767
sS'seal'
p1054
I1041
sS'pebble'
p1055
I1945
sS'sport'
p1056
I1594
sS'turbine'
p1057
I2422
sS"cat's"
p1058
I439
sS'sideburns'
p1059
I1604
sS'ornament'
p1060
I1959
sS'goers'
p1061
I2588
sS'teacup'
p1062
I1529
sS'outside'
p1063
I890
sS'between'
p1064
I828
sS'across'
p1065
I212
sS'orchestrate'
p1066
I1296
sS'screen'
p1067
I693
sS'pluck'
p1068
I332
sS'guitar'
p1069
I94
sS'jets'
p1070
I2487
sS'tub'
p1071
I66
sS'comb'
p1072
I486
sS'come'
p1073
I1156
sS'tug'
p1074
I23
sS'mans'
p1075
I905
sS'rugby'
p1076
I1441
sS'tuck'
p1077
I1539
sS'hours'
p1078
I2630
sS'contract'
p1079
I2555
sS'pcs'
p1080
I1853
sS'wheels'
p1081
I2071
sS'expression'
p1082
I1815
sS'backpack'
p1083
I1794
sS'comes'
p1084
I181
sS'stretcher'
p1085
I1598
sS'passenger'
p1086
I1954
sS'color'
p1087
I1426
sS'pot'
p1088
I306
sS'jeans'
p1089
I1242
sS'spank'
p1090
I576
sS'singers'
p1091
I2574
sS'pole'
p1092
I410
sS'white-haired'
p1093
I2178
sS'stretched'
p1094
I1566
sS'poll'
p1095
I1083
sS'spark'
p1096
I2166
sS'boat'
p1097
I977
sS'turkey'
p1098
I1980
sS'most'
p1099
I2572
sS'teammate'
p1100
I2635
sS'lioness'
p1101
I577
sS'teddy'
p1102
I2592
sS'stretch'
p1103
I193
sS'wobble'
p1104
I966
sS'skatboard'
p1105
I1786
sS'undershirt'
p1106
I2484
sS'mark'
p1107
I2179
sS'breath'
p1108
I801
sS'dictator'
p1109
I1975
sS'helicopter'
p1110
I2163
sS'cords'
p1111
I1340
sS'direction'
p1112
I560
sS'lanes'
p1113
I237
sS'fours'
p1114
I1988
sS'squash'
p1115
I1361
sS'tiger'
p1116
I285
sS'spirit'
p1117
I1281
sS'straighten'
p1118
I665
sS'trick'
p1119
I1739
sS"clock's"
p1120
I2473
sS'newspaper'
p1121
I903
sS'cock'
p1122
I2054
sS"person's"
p1123
I809
sS'vest'
p1124
I1785
sS'punches'
p1125
I2104
sS'purse'
p1126
I1173
sS'telephone'
p1127
I1486
sS'sleeping'
p1128
I700
sS'middle'
p1129
I167
sS'embrace'
p1130
I857
sS'heels'
p1131
I1320
sS'somebody'
p1132
I1630
sS'fastest'
p1133
I2638
sS'helmet'
p1134
I1560
sS"shark's"
p1135
I2271
sS'pat'
p1136
I17
sS'paw'
p1137
I128
sS'bowl'
p1138
I943
sS'same'
p1139
I272
sS"laptop's"
p1140
I1329
sS'figurine'
p1141
I364
sS'pad'
p1142
I1864
sS'pushup'
p1143
I1389
sS'otto'
p1144
I2106
sS'pullup'
p1145
I2042
sS'pan'
p1146
I1643
sS'nuzzle'
p1147
I1160
sS'exhaust'
p1148
I472
sS'closest'
p1149
I1518
sS'crutches'
p1150
I629
sS'applaud'
p1151
I2015
sS'assist'
p1152
I2115
sS'driver'
p1153
I1971
sS'weed'
p1154
I1634
sS'cymbal'
p1155
I1622
sS'persons'
p1156
I917
sS'running'
p1157
I143
sS'fruit'
p1158
I1377
sS'tamborine'
p1159
I1726
sS'cartoon'
p1160
I1831
sS'weave'
p1161
I668
sS'nunchucks'
p1162
I2168
sS'burrito'
p1163
I2218
sS'floor'
p1164
I401
sS'walls'
p1165
I793
sS'spoonful'
p1166
I2186
sS'without'
p1167
I916
sS'bottle'
p1168
I489
sS'model'
p1169
I938
sS'bodies'
p1170
I552
sS'lysol'
p1171
I2614
sS'being'
p1172
I883
sS'money'
p1173
I436
sS'dancers'
p1174
I732
sS'actress'
p1175
I798
sS'kill'
p1176
I1543
sS'file'
p1177
I2551
sS'touch'
p1178
I520
sS'polish'
p1179
I1563
sS'blow'
p1180
I334
sS'death'
p1181
I2228
sS'snowboarder'
p1182
I2215
sS'womans'
p1183
I703
sS'rose'
p1184
I1659
sS'pups'
p1185
I2281
sS'gutair'
p1186
I1553
sS'pallet'
p1187
I2332
sS'instrument'
p1188
I207
sS'4'
I6
sS'hind'
p1189
I723
sS'electrical'
p1190
I2611
sS'pill'
p1191
I1231
sS'skier'
p1192
I2139
sS'swim'
p1193
I1617
sS'grit'
p1194
I1157
sS'frown'
p1195
I620
sS'read'
p1196
I2543
sS'marshmellow'
p1197
I2066
sS'mop'
p1198
I400
sS'fridge'
p1199
I1330
sS'dart'
p1200
I1532
sS'dark'
p1201
I1349
sS'chainsaw'
p1202
I2223
sS'snarl'
p1203
I1670
sS'traffic'
p1204
I1930
sS'pop'
p1205
I537
sS'mom'
p1206
I1483
sS'vacuum'
p1207
I185
sS'using'
p1208
I263
sS'lady'
p1209
I621
sS'rear'
p1210
I881
sS'furniture'
p1211
I1032
sS'clam'
p1212
I2421
sS'towel'
p1213
I1392
sS'bracelet'
p1214
I2103
sS'lightning'
p1215
I350
sS'facing'
p1216
I2068
sS'audience'
p1217
I1672
sS'nose'
p1218
I679
sS'clay'
p1219
I406
sS'claw'
p1220
I319
sS'downward'
p1221
I1060
sS'clap'
p1222
I262
sS'fives'
p1223
I2342
sS'doll'
p1224
I72
sS'ascend'
p1225
I1665
sS'erase'
p1226
I1394
sS'diving'
p1227
I322
sS'squirm'
p1228
I722
sS'sling'
p1229
I1403
sS'unlocked'
p1230
I1312
sS'shirtless'
p1231
I678
sS'longboard'
p1232
I1999
sS'jiggle'
p1233
I558
sS'moon'
p1234
I2377
sS'exit'
p1235
I2189
sS'squirt'
p1236
I1258
sS'doggy'
p1237
I2085
sS'knife'
p1238
I1036
sS'power'
p1239
I2362
sS'drumb'
p1240
I995
sS'nails'
p1241
I1575
sS'surfboard'
p1242
I1492
sS'robots'
p1243
I2519
sS'pigtails'
p1244
I2406
sS'drums'
p1245
I1327
sS'assemble'
p1246
I512
sS'throw'
p1247
I295
sS'motorbike'
p1248
I2418
sS'racoon'
p1249
I2313
sS'giggle'
p1250
I432
sS'stone'
p1251
I1928
sS'tease'
p1252
I1061
sS'ack'
p1253
I1297
sS'smear'
p1254
I523
sS'fishtail'
p1255
I1261
sS'drag'
p1256
I437
sS'chop'
p1257
I761
sS'wolf'
p1258
I1921
sS'stand'
p1259
I277
sS'wold'
p1260
I2318
sS'act'
p1261
I630
sS'or'
p1262
I50
sS'road'
p1263
I741
sS'marshmallow'
p1264
I54
sS'instruments'
p1265
I2101
sS'image'
p1266
I2133
sS'shouldars'
p1267
I2593
sS'earring'
p1268
I1866
sS'strip'
p1269
I2435
sS'pivot'
p1270
I751
sS'stare'
p1271
I1266
sS'fill'
p1272
I87
sS'log'
p1273
I1239
sS'prepare'
p1274
I782
sS'area'
p1275
I280
sS'whales'
p1276
I2643
sS'there'
p1277
I69
sS'wrigle'
p1278
I2002
sS'knods'
p1279
I1431
sS'cats'
p1280
I1013
sS'low'
p1281
I2140
sS'stars'
p1282
I1904
sS'hen'
p1283
I1906
sS'bubble'
p1284
I892
sS"child's"
p1285
I887
sS'pitcher'
p1286
I785
sS'eyeliner'
p1287
I2560
sS'cabinet'
p1288
I2000
sS'posterior'
p1289
I381
sS'recoil'
p1290
I2167
sS"owl's"
p1291
I1760
sS'jut'
p1292
I1978
sS'walkway'
p1293
I2079
sS'burn'
p1294
I2382
sS'with'
p1295
I204
sS'pull'
p1296
I71
sS'pule'
p1297
I1445
sS'bucket'
p1298
I556
sS'tiptoe'
p1299
I718
sS'strawberry'
p1300
I1133
sS'torse'
p1301
I1293
sS'grasp'
p1302
I510
sS'jackhammer'
p1303
I2197
sS'grass'
p1304
I2035
sS'torso'
p1305
I1321
sS'toilet'
p1306
I1416
sS'filp'
p1307
I967
sS'subdue'
p1308
I1233
sS'taste'
p1309
I1826
sS'frighten'
p1310
I1753
sS'deer'
p1311
I951
sS'mike'
p1312
I2161
sS'deep'
p1313
I1207
sS'an'
p1314
I206
sS'as'
p1315
I292
sS'at'
p1316
I78
sS'nero'
p1317
I1259
sS'ax'
p1318
I1775
sS'skateboarders'
p1319
I947
sS'tremble'
p1320
I814
sS'cream'
p1321
I735
sS'yoga'
p1322
I675
sS'gorilla'
p1323
I2248
sS'pedals'
p1324
I2247
sS'swords'
p1325
I2520
sS'rubber'
p1326
I1730
sS'field'
p1327
I609
sS'5'
I22
sS'puppy'
p1328
I480
sS'polar'
p1329
I2522
sS'sit-ups'
p1330
I1132
sS'symbol'
p1331
I2105
sS'time'
p1332
I273
sS'drift'
p1333
I789
sS'waving'
p1334
I1437
sS'bullets'
p1335
I1796
sS'peak'
p1336
I871
sS'mechanical'
p1337
I2414
sS'torches'
p1338
I1285
sS'revolve'
p1339
I688
sS'sneeze'
p1340
I1017
sS'awkwardly'
p1341
I1858
sS'pool'
p1342
I491
sS'building'
p1343
I1741
sS'baloons'
p1344
I1623
sS'remote'
p1345
I2335
sS'groom'
p1346
I945
sS'mask'
p1347
I927
sS'smooch'
p1348
I1605
sS'scroll'
p1349
I1544
sS'haired'
p1350
I1489
sS'strings'
p1351
I203
sS'retch'
p1352
I1671
sS'all'
p1353
I1842
sS'skeleton'
p1354
I1197
sS'pointing'
p1355
I231
sS'seals'
p1356
I2470
sS'disc'
p1357
I1143
sS'smoking'
p1358
I2102
sS'dish'
p1359
I790
sS'follow'
p1360
I586
sS'macarani'
p1361
I2338
sS'disk'
p1362
I405
sS'children'
p1363
I2147
sS'carpet'
p1364
I430
sS'apartment'
p1365
I681
sS'gymnast'
p1366
I1454
sS'dribble'
p1367
I369
sS'to'
p1368
I46
sS'tail'
p1369
I397
sS'smile'
p1370
I540
sS'puffs'
p1371
I1732
sS'woman'
p1372
I4
sS'sitting'
p1373
I1565
sS'far'
p1374
I284
sS'differenct'
p1375
I2046
sS'fat'
p1376
I1541
sS'baton'
p1377
I335
sS'rogue'
p1378
I2245
sS'fan'
p1379
I963
sS'fall'
p1380
I55
sS'bubbles'
p1381
I538
sS'finger-guns'
p1382
I1398
sS'celebrity'
p1383
I2301
sS'laying'
p1384
I2486
sS'large'
p1385
I600
sS'dinosaur'
p1386
I662
sS'sand'
p1387
I1066
sS'adjust'
p1388
I119
sS'off-screen'
p1389
I1359
sS'small'
p1390
I1341
sS'forty-one'
p1391
I2608
sS'flick'
p1392
I8
sS'cockatoo'
p1393
I1946
sS'fence'
p1394
I1947
sS'inchwormed'
p1395
I1311
sS'tea'
p1396
I1762
sS'cash'
p1397
I1457
sS'past'
p1398
I1254
sS'burger'
p1399
I1725
sS'unidentifiable'
p1400
I2535
sS'pass'
p1401
I112
sS'hairspray'
p1402
I1926
sS'chuckle'
p1403
I979
sS'what'
p1404
I1
sS'tussle'
p1405
I499
sS'clock'
p1406
I2580
sS'deeply'
p1407
I1295
sS'stool'
p1408
I1011
sS'lurch'
p1409
I1503
sS'milk'
p1410
I1141
sS'abs'
p1411
I2151
sS'racing'
p1412
I2439
sS'guns'
p1413
I2495
sS'movement'
p1414
I958
sS'toes'
p1415
I846
sS'ruffle'
p1416
I378
sS'doorframe'
p1417
I2233
sS'bowtie'
p1418
I836
sS'shoulds'
p1419
I1260
sS'puddles'
p1420
I1519
sS'ranger'
p1421
I1937
sS'beacon'
p1422
I2537
sS'themself'
p1423
I2366
sS'trunk'
p1424
I2160
sS'colored'
p1425
I394
sS'stretching'
p1426
I1386
sS'scurry'
p1427
I1550
sS'soldier'
p1428
I2006
sS'hamster'
p1429
I1534
sS'pick'
p1430
I474
sS'action'
p1431
I1929
sS'narrow'
p1432
I2065
sS'footballer'
p1433
I2529
sS'sticking'
p1434
I2490
sS'turnned'
p1435
I574
sS'shuffle'
p1436
I164
sS'pulll'
p1437
I1249
sS'balalnce'
p1438
I808
sS'while'
p1439
I186
sS'screens'
p1440
I1829
sS'stopper'
p1441
I2181
sS'toys'
p1442
I1201
sS"lion's"
p1443
I845
sS'extinction'
p1444
I154
sS'eye'
p1445
I384
sS'takes'
p1446
I446
sS'wield'
p1447
I1210
sS'two'
p1448
I287
sS'generate'
p1449
I2303
sS'splash'
p1450
I521
sS'6'
I70
sS'jive'
p1451
I948
sS'wiper'
p1452
I2032
sS'wipes'
p1453
I2488
sS'more'
p1454
I51
sS'teen'
p1455
I461
sS'flat'
p1456
I1328
sS'diamond'
p1457
I1371
sS'door'
p1458
I646
sS'flap'
p1459
I58
sS'chimpanzee'
p1460
I2128
sS'flag'
p1461
I407
sS'stick'
p1462
I313
sS'breach'
p1463
I1419
sS'suction'
p1464
I1874
sS'mounted'
p1465
I2521
sS"puppy's"
p1466
I1889
sS'squish'
p1467
I1099
sS'sleeveless'
p1468
I829
sS'guards'
p1469
I1284
sS'nine'
p1470
I2640
sS'smurk'
p1471
I1538
sS'wrestler'
p1472
I1624
sS'v'
I584
sS'grope'
p1473
I1229
sS'male'
p1474
I1018
sS'shark'
p1475
I748
sS'hamburger'
p1476
I2081
sS'pushes'
p1477
I30
sS'gallop'
p1478
I396
sS'joints'
p1479
I1071
sS'armor'
p1480
I2622
sS'sphere'
p1481
I1509
sS'numbers'
p1482
I1072
sS'ukelele'
p1483
I1151
sS'pong'
p1484
I775
sS'mn'
p1485
I2202
sS'dress'
p1486
I627
sS'extinguisher'
p1487
I2268
sS'court'
p1488
I483
sS'goal'
p1489
I2320
sS'khakis'
p1490
I2554
sS'toenail'
p1491
I2231
sS'stir'
p1492
I1137
sS'goat'
p1493
I623
sS'creature'
p1494
I2212
sS'plant'
p1495
I904
sS'sandwich'
p1496
I1549
sS'cirlce'
p1497
I1868
sS'rude'
p1498
I2412
sS'whirl'
p1499
I420
sS'tries'
p1500
I171
sS'plane'
p1501
I1057
sS'lighting'
p1502
I2378
sS'waves'
p1503
I2048
sS'gasp'
p1504
I753
sS'horizontal'
p1505
I1379
sS'plank'
p1506
I1269
sS'a'
I37
sS'short'
p1507
I1235
sS'coat'
p1508
I534
sS'doctor'
p1509
I2364
sS'pucker'
p1510
I813
sS'stash'
p1511
I2438
sS'dragon'
p1512
I1581
sS'shore'
p1513
I1097
sS'tentacles'
p1514
I870
sS'chopsticks'
p1515
I895
sS'cigarett'
p1516
I1573
sS'pleasure'
p1517
I1846
sS'egg'
p1518
I1764
sS'playing'
p1519
I2038
sS'chicks'
p1520
I896
sS'infant'
p1521
I2590
sS'help'
p1522
I516
sS'earing'
p1523
I2026
sS'pant'
p1524
I547
sS'slouch'
p1525
I1025
sS'paper'
p1526
I431
sS'through'
p1527
I676
sS'lasers'
p1528
I2205
sS'lederhosen'
p1529
I1915
sS'smiling'
p1530
I1875
sS'25'
p1531
I2634
sS'style'
p1532
I1471
sS'rapidly'
p1533
I937
sS'glide'
p1534
I1265
sS'call'
p1535
I632
sS'inward'
p1536
I1109
sS'harmless'
p1537
I2448
sS'coconuts'
p1538
I2143
sS'soccer'
p1539
I705
sS'sauce'
p1540
I305
sS'someone'
p1541
I215
sS'return'
p1542
I773
sS'food'
p1543
I11
sS'males'
p1544
I2297
sS'pingpong'
p1545
I2374
sS'snowball'
p1546
I847
sS'cigarettes'
p1547
I2146
sS'foot'
p1548
I667
sS'ninja'
p1549
I1903
sS'sucked'
p1550
I2327
sS'huddle'
p1551
I1219
sS'pregnant'
p1552
I1095
sS'swimsuit'
p1553
I2001
sS'slicked'
p1554
I1423
sS'knight'
p1555
I2263
sS'biscuits'
p1556
I1822
sS'notes'
p1557
I2585
sS'weight'
p1558
I1162
sS'house'
p1559
I1264
sS'fish'
p1560
I514
sS'hard'
p1561
I1960
sS'beret'
p1562
I2003
sS'connect'
p1563
I641
sS'fist'
p1564
I218
sS'scissors'
p1565
I2503
sS'harp'
p1566
I333
sS'mickey'
p1567
I2617
sS'flower'
p1568
I595
sS'lipstick'
p1569
I1381
sS'surrounded'
p1570
I2602
sS'pigeon'
p1571
I1358
sS'hill'
p1572
I344
sS'7'
I274
sS'print'
p1573
I2289
sS'hangers'
p1574
I730
sS'salute'
p1575
I1299
sS'dunk'
p1576
I1620
sS'foreground'
p1577
I496
sS'bald'
p1578
I2175
sS'bass'
p1579
I1582
sS'dirt'
p1580
I695
sS'pug'
p1581
I1474
sS'capture'
p1582
I1754
sS'toy'
p1583
I173
sS'cookie'
p1584
I743
sS'murmur'
p1585
I1773
sS'put'
p1586
I89
sS'bouce'
p1587
I1554
sS'beginning'
p1588
I1879
sS'sidewalk'
p1589
I1322
sS'thrown'
p1590
I962
sS'owners'
p1591
I606
sS'launch'
p1592
I391
sS'lemur'
p1593
I2209
sS"woman's"
p1594
I441
sS"car's"
p1595
I2629
sS'american'
p1596
I469
sS'canister'
p1597
I2433
sS'chorography'
p1598
I2604
sS'heartbeat'
p1599
I1913
sS'fallen'
p1600
I2539
sS'throws'
p1601
I1290
sS'feed'
p1602
I1487
sS'statue'
p1603
I1907
sS'feel'
p1604
I855
sS'guesture'
p1605
I471
sS'number'
p1606
I910
sS'feet'
p1607
I275
sS'dust'
p1608
I2540
sS'drier'
p1609
I1890
sS'elevator'
p1610
I1169
sS'blank'
p1611
I2274
sS'cups'
p1612
I1744
sS'miss'
p1613
I97
sS'horse'
p1614
I356
sS'heads'
p1615
I315
sS'guest'
p1616
I484
sS'jet'
p1617
I434
sS'swipe'
p1618
I290
sS'rails'
p1619
I2036
sS'broccoli'
p1620
I2400
sS'paint'
p1621
I454
sS'leash'
p1622
I1224
sS'passed'
p1623
I1618
sS'fingernail'
p1624
I2407
sS'hummingbird'
p1625
I2217
sS'syrup'
p1626
I2403
sS'banana'
p1627
I314
sS'ketchup'
p1628
I2214
sS'muscles'
p1629
I1873
sS'storm'
p1630
I2381
sS'behind'
p1631
I737
sS'exploded'
p1632
I858
sS'needle'
p1633
I2242
sS'interviewee'
p1634
I1546
sS'interviewed'
p1635
I1652
sS'part'
p1636
I448
sS'fidget'
p1637
I954
sS'rifle'
p1638
I1124
sS'albums'
p1639
I1286
sS'steaks'
p1640
I2566
sS'stairs'
p1641
I312
sS'oscillate'
p1642
I687
sS'leotard'
p1643
I1592
sS'john'
p1644
I1923
sS'throttle'
p1645
I1172
sS'performers'
p1646
I795
sS'grey'
p1647
I2057
sS'youth'
p1648
I2269
sS'bride'
p1649
I779
sS'stalk'
p1650
I2153
sS'toward'
p1651
I101
sS'tongues'
p1652
I338
sS'cleaner'
p1653
I1130
sS'swerve'
p1654
I827
sS'friends'
p1655
I2591
sS'chipmunk'
p1656
I2507
sS'bodty'
p1657
I1675
sS'juice'
p1658
I1852
sS'caress'
p1659
I868
sS'graffiti'
p1660
I1125
sS'blond'
p1661
I366
sS'wipers'
p1662
I2009
sS'lid'
p1663
I1963
sS'mountain'
p1664
I1221
sS'koala'
p1665
I1448
sS'dancing'
p1666
I478
sS'self'
p1667
I1074
sS'flaming'
p1668
I1461
sS'couch'
p1669
I1353
sS'jostle'
p1670
I479
sS'lip'
p1671
I451
sS'breaststroke'
p1672
I2341
sS'gym'
p1673
I1100
sS'play'
p1674
I985
sS'towards'
p1675
I39
sS'electric'
p1676
I1205
sS'singles'
p1677
I2498
sS'eggs'
p1678
I1735
sS'reach'
p1679
I258
sS'breaking'
p1680
I2463
sS'prosthetic'
p1681
I2282
sS'react'
p1682
I117
sS'cigarette'
p1683
I550
sS'nothing'
p1684
I1268
sS'smoosh'
p1685
I1559
sS'stands'
p1686
I2184
sS'mobile'
p1687
I872
sS'cover'
p1688
I908
sS'clean'
p1689
I1333
sS'bandanna'
p1690
I2460
sS'hips'
p1691
I13
sS'stones'
p1692
I1326
sS'rocker'
p1693
I2469
sS'golf'
p1694
I1002
sS'gold'
p1695
I2479
sS'headbangs'
p1696
I1079
sS'flicker'
p1697
I1149
sS'hugging'
p1698
I1580
sS'barbell'
p1699
I755
sS'violinists'
p1700
I2292
sS'stubble'
p1701
I1561
sS'scooter'
p1702
I918
sS'writer'
p1703
I2309
sS'whindshield'
p1704
I2428
sS'condom'
p1705
I2109
sS'8'
I122
sS'circle'
p1706
I374
sS'juke'
p1707
I1045
sS'hip'
p1708
I402
sS'his'
p1709
I1938
sS'hit'
p1710
I309
sS'express'
p1711
I2256
sS'trees'
p1712
I1251
sS'strut'
p1713
I802
sS'ferret'
p1714
I1331
sS'owls'
p1715
I2249
sS'batter'
p1716
I1409
sS'breast'
p1717
I1360
sS'strum'
p1718
I83
sS'silk'
p1719
I1274
sS'banner'
p1720
I614
sS'him'
p1721
I182
sS'huff'
p1722
I1645
sS'fluff'
p1723
I652
sS'catcher'
p1724
I2388
sS'motorcycles'
p1725
I2625
sS'sleeve'
p1726
I1146
sS'cry'
p1727
I1499
sS'remove'
p1728
I1410
sS'perfume'
p1729
I1262
sS'gloves'
p1730
I1496
sS'backword'
p1731
I1914
sS'guinea'
p1732
I1591
sS'bars'
p1733
I1245
sS'set'
p1734
I404
sS'dump'
p1735
I1488
sS'sep'
p1736
I1038
sS'throwing'
p1737
I1298
sS'nibble'
p1738
I1237
sS'lion'
p1739
I1222
sS'bare'
p1740
I1767
sS'close'
p1741
I251
sS'bark'
p1742
I355
sS'outward'
p1743
I1228
sS'nippers'
p1744
I955
sS'knees'
p1745
I477
sS'practice'
p1746
I2525
sS'movie'
p1747
I1186
sS'slapped'
p1748
I1900
sS'o-shape'
p1749
I1467
sS'fans'
p1750
I2392
sS'silly'
p1751
I1517
sS"other's"
p1752
I199
sS'black-haired'
p1753
I1685
sS'kneel'
p1754
I1475
sS'pullups'
p1755
I1114
sS'outfit'
p1756
I2645
sS'spray'
p1757
I453
sS'invisible'
p1758
I388
sS'interpertively'
p1759
I1332
sS'both'
p1760
I270
sS'cubes'
p1761
I2235
sS'last'
p1762
I2316
sS'iteslf'
p1763
I245
sS'bowie'
p1764
I2569
sS'buzz'
p1765
I1506
sS'Yes'
p1766
I0
sS'whole'
p1767
I1597
sS'sink'
p1768
I763
sS'load'
p1769
I1779
sS'sloth'
p1770
I2457
sS'strech'
p1771
I1227
sS'point'
p1772
I45
sS'battery'
p1773
I835
sS'forklift'
p1774
I2195
sS'sweep'
p1775
I475
sS'dancer'
p1776
I1429
sS'weasel'
p1777
I2499
sS'mumble'
p1778
I1115
sS'along'
p1779
I1568
sS'belt'
p1780
I84
sS'catwalk'
p1781
I1772
sS'suspenders'
p1782
I1674
sS'devil'
p1783
I1589
sS'raise'
p1784
I282
sS'stamp'
p1785
I2455
sS'create'
p1786
I587
sS'curve'
p1787
I842
sS'hitting'
p1788
I1629
sS'peppers'
p1789
I1940
sS'brick'
p1790
I1498
sS'empty'
p1791
I568
sS'humping'
p1792
I2216
sS'referee'
p1793
I2444
sS'flight'
p1794
I2363
sS'squirrel'
p1795
I1168
sS'boy'
p1796
I362
sS'fire'
p1797
I153
sS"lizard's"
p1798
I1351
sS'crack'
p1799
I1740
sS'gas'
p1800
I1608
sS'high-chair'
p1801
I2013
sS'watergun'
p1802
I2561
sS'numchucks'
p1803
I2092
sS'sleeves'
p1804
I2053
sS'gag'
p1805
I921
sS'chatter'
p1806
I1501
sS'fur'
p1807
I459
sS'look'
p1808
I346
sS'ski'
p1809
I435
sS'bill'
p1810
I1029
sS'crutch'
p1811
I2138
sS'rope'
p1812
I998
sS'pace'
p1813
I875
sS'bikini'
p1814
I1279
sS'match'
p1815
I1932
sS'grip'
p1816
I1746
sS'pound'
p1817
I1380
sS'twiddle'
p1818
I1837
sS'demon'
p1819
I2431
sS'itself'
p1820
I1101
sS'around'
p1821
I27
sS'shirt'
p1822
I140
sS'choking'
p1823
I1294
sS'shorter'
p1824
I2477
sS'firearms'
p1825
I2149
sS'peoples'
p1826
I111
sS'9'
I168
sS'eybrow'
p1827
I1250
sS'hallway'
p1828
I806
sS'itch'
p1829
I1812
sS'ballerina'
p1830
I1836
sS'keys'
p1831
I1076
sS'teeter'
p1832
I1476
sS'cigar'
p1833
I1244
sS'leopard'
p1834
I1318
sS'cement'
p1835
I1743
sS'moving'
p1836
I636
sS'stripe'
p1837
I1841
sS'stack'
p1838
I894
sS'escalator'
p1839
I1600
sS'canned'
p1840
I970
sS'beanie'
p1841
I1103
sS'swish'
p1842
I874
sS'cheek'
p1843
I442
sS'grind'
p1844
I1961
sS'person'
p1845
I240
sS'cheer'
p1846
I1065
sS'dryer'
p1847
I1791
sS'flags'
p1848
I2515
sS'howl'
p1849
I931
sS'bandage'
p1850
I536
sS'chord'
p1851
I1894
sS'synringe'
p1852
I581
sS'backflip'
p1853
I464
sS'propeller'
p1854
I1758
sS'shape'
p1855
I981
sS'circling'
p1856
I1713
sS'spiky'
p1857
I2442
sS'prince'
p1858
I1909
sS'jumpsuit'
p1859
I2277
sS'tables'
p1860
I1283
sS'cut'
p1861
I721
sS'tablet'
p1862
I1094
sS'cup'
p1863
I194
sS'alternate'
p1864
I1092
sS'cue'
p1865
I1004
sS'cub'
p1866
I1159
sS'crying'
p1867
I974
sS'snap'
p1868
I60
sS'sparklers'
p1869
I2413
sS'vaccume'
p1870
I1640
sS'march'
p1871
I1761
sS'big'
p1872
I701
sS'couple'
p1873
I942
sS'sharpener'
p1874
I1872
sS'game'
p1875
I1021
sS'bit'
p1876
I1798
sS'wings'
p1877
I59
sS'insect'
p1878
I2387
sS'knock'
p1879
I220
sS'rotate'
p1880
I229
sS'shaped'
p1881
I619
sS'signal'
p1882
I1334
sS'glove'
p1883
I1059
sS'rider'
p1884
I2538
sS'back-flips'
p1885
I2022
sS'cones'
p1886
I2367
sS'brakes'
p1887
I1765
sS'spring'
p1888
I1825
sS'some'
p1889
I2196
sS'back'
p1890
I18
sS'bounce'
p1891
I174
sS'lips'
p1892
I255
sS'palm'
p1893
I1054
sS'clown'
p1894
I1745
sS'mirror'
p1895
I1587
sS'candle'
p1896
I1469
sS'sprint'
p1897
I2420
sS'jewelry'
p1898
I1695
sS'pet'
p1899
I476
sS'tools'
p1900
I2502
sS'prop'
p1901
I2077
sS'hairband'
p1902
I1693
sS'pen'
p1903
I984
sS'sneakers'
p1904
I2336
sS'prod'
p1905
I747
sS'temple'
p1906
I1596
sS'laughing'
p1907
I1493
sS'hi-five'
p1908
I233
sS'eating'
p1909
I960
sS'rapping'
p1910
I1820
sS'rub'
p1911
I155
sS'jumps'
p1912
I1817
sS'rug'
p1913
I1991
sS'rud'
p1914
I1438
sS'zombie'
p1915
I2345
sS'step'
p1916
I114
sS'santa'
p1917
I1148
sS'cannons'
p1918
I2091
sS'raspberry'
p1919
I605
sS'by'
p1920
I110
sS'yawn'
p1921
I1450
sS'god'
p1922
I2552
sS'beans'
p1923
I2150
sS'womens'
p1924
I1182
sS'block'
p1925
I854
sS'garbage'
p1926
I1019
sS'into'
p1927
I327
sS'rollerblade'
p1928
I1920
sS'curtsy'
p1929
I1576
sS'rolls'
p1930
I1715
sS'sashay'
p1931
I720
sS'scrunch'
p1932
I532
sS'eleven'
p1933
I2445
sS'sock'
p1934
I1039
sS'long'
p1935
I1924
sS'custom'
p1936
I1843
sS'sqeeze'
p1937
I1667
sS'suit'
p1938
I645
sS'forward'
p1939
I317
sS'waistband'
p1940
I120
sS'opponent'
p1941
I1547
sS'himself'
p1942
I543
sS'hawaiian'
p1943
I1621
sS'downstairs'
p1944
I1602
sS'poster'
p1945
I1855
sS'slump'
p1946
I762
sS't-shirt'
p1947
I1411
sS'boys'
p1948
I1027
sS'crank'
p1949
I689
sS'line'
p1950
I1005
sS'reel'
p1951
I200
sS'raising'
p1952
I1396
sS'penguin'
p1953
I2072
sS'fries'
p1954
I1402
sS'up'
p1955
I139
sS'windows'
p1956
I2008
sS'cartwheel'
p1957
I717
sS'highlight'
p1958
I427
sS'duckling'
p1959
I1807
sS'bind'
p1960
I2287
sS'metal'
p1961
I1688
sS'package'
p1962
I1933
sS'spoonfuls'
p1963
I660
sS'curb'
p1964
I1400
sS'necks'
p1965
I2397
sS'bicep'
p1966
I2058
sS'curl'
p1967
I1014
sS'dragging'
p1968
I310
sS'halfpipe'
p1969
I1220
sS'lemon'
p1970
I545
sS'peace'
p1971
I728
sS'scrape'
p1972
I1477
sS'points'
p1973
I1967
sS'actors'
p1974
I2372
sS'parakeet'
p1975
I671
sS'swirl'
p1976
I304
sS'draw'
p1977
I425
sS'scrub'
p1978
I812
sS'breasts'
p1979
I175
sS'lens'
p1980
I1708
sS"guy's"
p1981
I824
sS'slice'
p1982
I1190
sS'wrinkle'
p1983
I1436
sS'sides'
p1984
I1421
sS'wristband'
p1985
I2577
sS'pottery'
p1986
I2093
sS'furthest'
p1987
I1679
sS'lane'
p1988
I1047
sS'land'
p1989
I1301
sS'e'
I739
sS'weights'
p1990
I1202
sS'lying'
p1991
I1193
sS'walker'
p1992
I768
sS'berries'
p1993
I1662
sS'buffalo'
p1994
I2391
sS'hello'
p1995
I1042
sS'scratch'
p1996
I438
sS'nuns'
p1997
I2575
sS'alien'
p1998
I2598
sS'antennas'
p1999
I1154
sS'go'
p2000
I26
sS'golfer'
p2001
I2548
sS'peanut'
p2002
I2523
sS'young'
p2003
I239
sS'send'
p2004
I1981
sS'attackers'
p2005
I1234
sS'saxaphone'
p2006
I1075
sS'does'
p2007
I2
sS'outwards'
p2008
I2033
sS'suite'
p2009
I715
sS'include'
p2010
I1613
sS'fins'
p2011
I716
sS"opponent's"
p2012
I1574
sS'rag'
p2013
I2012
sS'unzip'
p2014
I1112
sS'ladle'
p2015
I1408
sS'kitty'
p2016
I1733
sS'wave'
p2017
I32
sS'spool'
p2018
I2485
sS'spoon'
p2019
I922
sS'llama'
p2020
I1723
sS'drinking'
p2021
I2571
sS'wipe'
p2022
I766
sS'arrange'
p2023
I819
sS'entire'
p2024
I1632
sS'magic'
p2025
I1009
sS'descend'
p2026
I1635
sS'button'
p2027
I964
sS'shock'
p2028
I2390
sS'try'
p2029
I502
sS'race'
p2030
I2373
sS'ride'
p2031
I1850
sS'cap'
p2032
I849
sS'booty'
p2033
I1808
sS'squirrels'
p2034
I2506
sS'scientist'
p2035
I2164
sS'chomp'
p2036
I1063
sS'jump'
p2037
I64
sS'fold'
p2038
I800
sS'video'
p2039
I1595
sS'booth'
p2040
I2545
sS'picked'
p2041
I390
sS'protrude'
p2042
I1523
sS'pajamas'
p2043
I2019
sS'click'
p2044
I1821
sS'index'
p2045
I1657
sS'poke'
p2046
I225
sS'giving'
p2047
I1783
sS'vampire'
p2048
I2434
sS'paddle'
p2049
I249
sS"man's"
p2050
I159
sS'cell'
p2051
I1345
sS'poles'
p2052
I1931
sS'anther'
p2053
I1851
sS't'
I2425
sS'relocate'
p2054
I1583
sS'bird'
p2055
I509
sS'see-saw'
p2056
I928
sS'body'
p2057
I91
sS'degree'
p2058
I1839
sS'leg'
p2059
I492
sS'lei'
p2060
I1902
sS'kangaroo'
p2061
I781
sS'punch'
p2062
I466
sS'objects'
p2063
I180
sS'let'
p2064
I376
sS'oars'
p2065
I726
sS'pancake'
p2066
I1478
sS'others'
p2067
I635
sS'sing'
p2068
I1832
sS'cyclist'
p2069
I2073
sS'rosary'
p2070
I2578
sS'receive'
p2071
I1397
sS'larger'
p2072
I2290
sS'shades'
p2073
I2352
sS'orangutan'
p2074
I2177
sS'armpit'
p2075
I2049
sS'popcorn'
p2076
I996
sS'climb'
p2077
I702
sS'writes'
p2078
I2368
sS'wig'
p2079
I2089
sS'shovel'
p2080
I926
sS'apple'
p2081
I1656
sS'limp'
p2082
I1357
sS'duck'
p2083
I968
sS'beckon'
p2084
I770
sS'apply'
p2085
I458
sS'singing'
p2086
I187
sS'manipulate'
p2087
I1797
sS'ape'
p2088
I2296
sS'standing'
p2089
I1678
sS'use'
p2090
I351
sS'from'
p2091
I133
sS'figure'
p2092
I2123
sS'snacks'
p2093
I2272
sS'frog'
p2094
I1314
sS'next'
p2095
I2096
sS'zig'
p2096
I1365
sS'camera'
p2097
I869
sS'crab'
p2098
I2173
sS'vehicle'
p2099
I1187
sS'themselves'
p2100
I2165
sS'lipgloss'
p2101
I2401
sS'cheeks'
p2102
I559
sS'pencil'
p2103
I1107
sS'on'
p2104
I124
sS'musician'
p2105
I563
sS'antennae'
p2106
I1768
sS'missile'
p2107
I2583
sS'train'
p2108
I408
sS'rabbit'
p2109
I618
sS'baby'
p2110
I24
sS'women'
p2111
I146
sS'balls'
p2112
I593
sS'animals'
p2113
I765
sS'duster'
p2114
I1390
sS'pout'
p2115
I852
sS'athlete'
p2116
I1511
sS'kickflip'
p2117
I1453
sS'pour'
p2118
I784
sS"patient's"
p2119
I2118
sS'tag'
p2120
I2262
sS'of'
p2121
I19
sS'drops'
p2122
I412
sS'grin'
p2123
I202
sS'something'
p2124
I136
sS'porcupine'
p2125
I1378
sS'tap'
p2126
I426
sS'slip'
p2127
I626
sS'plate'
p2128
I1238
sS'pelvic'
p2129
I279
sS'high'
p2130
I791
sS'carrot'
p2131
I1704
sS'bend'
p2132
I460
sS'tab'
p2133
I628
sS'pelvis'
p2134
I826
sS'tan'
p2135
I2211
sS'paws'
p2136
I699
sS'skirt'
p2137
I946
sS'rods'
p2138
I2286
sS'lamb'
p2139
I1669
sS'tube'
p2140
I2331
sS'v-shaped'
p2141
I2070
sS'sip'
p2142
I1158
sS'sit'
p2143
I360
sS'onions'
p2144
I2136
sS'holds'
p2145
I36
sS'struggles'
p2146
I1881
sS'lamp'
p2147
I1206
sS'carrier'
p2148
I2637
sS'animal'
p2149
I361
sS'toddler'
p2150
I517
sS'typewriter'
p2151
I1179
sS'hurdles'
p2152
I1736
sS'blocks'
p2153
I1709
sS'stop'
p2154
I142
sS'tied'
p2155
I2252
sS'3'
I92
sS'dominos'
p2156
I2339
sS'wrist'
p2157
I1369
sS'prance'
p2158
I879
sS'taco'
p2159
I1135
sS'cabbage'
p2160
I2527
sS'chasing'
p2161
I2097
sS'light'
p2162
I353
sS'counter'
p2163
I2509
sS'lines'
p2164
I1062
sS'robot'
p2165
I184
sS'scoop'
p2166
I733
sS'scoot'
p2167
I562
sS'scrubs'
p2168
I2452
sS'buttered'
p2169
I1710
sS'necklace'
p2170
I1246
sS'quotations'
p2171
I1806
sS'mustache'
p2172
I1689
sS'longest'
p2173
I2432
sS'ignite'
p2174
I2043
sS'boxing'
p2175
I2199
sS'thigh'
p2176
I2369
sS'move'
p2177
I67
sS'churros'
p2178
I1878
sS'spatula'
p2179
I914
sS'hugged'
p2180
I2461
sS'costume'
p2181
I663
sS'underwater'
p2182
I2082
sS'outer'
p2183
I447
sS'burning'
p2184
I2122
sS'broom'
p2185
I1802
sS'noses'
p2186
I1653
sS'squatting'
p2187
I2441
sS'smoothe'
p2188
I1569
sS'gymnasts'
p2189
I2207
sS'orange'
p2190
I900
sS'covered'
p2191
I1655
sS'dad'
p2192
I2458
sS'flex'
p2193
I889
sS'crash'
p2194
I2108
sS'sword'
p2195
I1055
sS'dab'
p2196
I752
sS"kitten's"
p2197
I2021
sS'elephant'
p2198
I1473
sS'oranges'
p2199
I2437
sS'dock'
p2200
I2193
sS'cutting'
p2201
I2227
sS'snake'
p2202
I891
sS'kiss'
p2203
I286
sS'hands'
p2204
I35
sS'front'
p2205
I418
sS'bar'
p2206
I125
sS'cage'
p2207
I1968
sS'flail'
p2208
I201
sS'boots'
p2209
I2005
sS'slide'
p2210
I457
sS'trap'
p2211
I2411
sS'bills'
p2212
I615
sS'shaking'
p2213
I973
sS'upward'
p2214
I246
sS'skate'
p2215
I865
sS'swilvel'
p2216
I1706
sS'ankles'
p2217
I1884
sS'tabby'
p2218
I2360
sS'bump'
p2219
I463
sS'globe'
p2220
I2062
sS'buildings'
p2221
I2646
sS'sportsman'
p2222
I2533
sS'skank'
p2223
I1579
sS'books'
p2224
I911
sS'thirteen'
p2225
I2334
sS'measure'
p2226
I1324
sS'cupboard'
p2227
I2396
sS'sweatshirt'
p2228
I1078
sS'goalkeeper'
p2229
I2581
sS'out'
p2230
I75
sS'mats'
p2231
I2055
sS'announcer'
p2232
I2462
sS'valve'
p2233
I1793
sS'rev'
p2234
I956
sS'mate'
p2235
I1305
sS'wick'
p2236
I1717
sS'red'
p2237
I527
sS"one's"
p2238
I1507
sS'umbrella'
p2239
I1275
sS'completely'
p2240
I1941
sS'thrust'
p2241
I219
sS'steering'
p2242
I885
sS'backless'
p2243
I867
sS'backwards'
p2244
I708
sS'yard'
p2245
I1181
sS'her'
p2246
I137
sS'spill'
p2247
I1986
sS'shells'
p2248
I1452
sS'skateboard'
p2249
I82
sS'headbutt'
p2250
I950
sS'yarn'
p2251
I2061
sS'times'
p2252
I7
sS'stride'
p2253
I440
sS'scarf'
p2254
I1977
sS'bouquet'
p2255
I368
sS'maracas'
p2256
I2099
sS'scene'
p2257
I1309
sS'puppet'
p2258
I1226
sS'owner'
p2259
I254
sS'righ'
p2260
I1367
sS'management'
p2261
I2446
sS'smaller'
p2262
I2423
sS'monkey'
p2263
I495
sS'bears'
p2264
I2083
sS'guys'
p2265
I1376
sS'blowdryer'
p2266
I2029
sS'their'
p2267
I43
sS'attack'
p2268
I352
sS'ankle'
p2269
I1916
sS'rigs'
p2270
I1524
sS'liquor'
p2271
I1430
sS'beard'
p2272
I371
sS'shell'
p2273
I749
sS'stomach'
p2274
I607
sS'shorts'
p2275
I989
sS'xylophone'
p2276
I2474
sS'feint'
p2277
I650
sS'excercises'
p2278
I1893
sS'fuzzy'
p2279
I2558
sS'herself'
p2280
I561
sS'remember'
p2281
I85
sS'babys'
p2282
I2243
sS'buttocks'
p2283
I2557
sS'see'
p2284
I192
sS'bed'
p2285
I386
sS'bee'
p2286
I851
sS'firework'
p2287
I385
sS'moonwalks'
p2288
I1091
sS'candles'
p2289
I978
sS'sculpture'
p2290
I2355
sS'wheelchair'
p2291
I2325
sS'steer'
p2292
I810
sS'cartwheels'
p2293
I1636
sS'clip'
p2294
I1134
sS'carrots'
p2295
I2039
sS'gently'
p2296
I1818
sS'have'
p2297
I539
sS'throat'
p2298
I1406
sS'screw'
p2299
I1447
sS'microphone'
p2300
I121
sS'angle'
p2301
I797
sS'sprinkler'
p2302
I2155
sS'mic'
p2303
I301
sS'kittens'
p2304
I1747
sS'pushups'
p2305
I2016
sS'arm'
p2306
I104
sS'mix'
p2307
I589
sS'sportswear'
p2308
I2343
sS'which'
p2309
I837
sS'soap'
p2310
I336
sS'blades'
p2311
I2162
sS'who'
p2312
I525
sS'rearrange'
p2313
I1451
sS'device'
p2314
I1660
sS'class'
p2315
I1516
sS'nazi'
p2316
I1950
sS'beets'
p2317
I993
sS'face'
p2318
I40
sS'pipe'
p2319
I88
sS'gesture'
p2320
I505
sS'pictures'
p2321
I777
sS'painting'
p2322
I1983
sS'scrap'
p2323
I1835
sS'squeegee'
p2324
I1789
sS'kite'
p2325
I1703
sS'gentleman'
p2326
I2416
sS'gail'
p2327
I2250
sS'crate'
p2328
I1790
sS'bring'
p2329
I455
sS'biker'
p2330
I2349
sS'bikes'
p2331
I2449
sS'chicken'
p2332
I228
sS'staff'
p2333
I1010
sS'one'
p2334
I264
sS'squeeze'
p2335
I166
sS'tire'
p2336
I422
sS'sparks'
p2337
I2244
sS'jaw'
p2338
I709
sS'fellate'
p2339
I1719
sS'jar'
p2340
I564
sS'bug'
p2341
I1502
sS'buttons'
p2342
I822
sS'tape'
p2343
I1070
sS'riding'
p2344
I1213
sS'piano'
p2345
I183
sS'flinch'
p2346
I126
sS'dodge'
p2347
I1803
sS'arns'
p2348
I1934
sS'cube'
p2349
I383
sS'handle'
p2350
I503
sS'beat'
p2351
I994
sS'stripes'
p2352
I2059
sS'bear'
p2353
I778
sS'vacumm'
p2354
I2328
sS'wiggle'
p2355
I106
sS'bean'
p2356
I129
sS'words'
p2357
I759
sS'beak'
p2358
I969
sS'striped'
p2359
I698
sS'chips'
p2360
I1136
sS'gray'
p2361
I308
sS'champagne'
p2362
I1610
sS'shopping'
p2363
I2111
sS'scraf'
p2364
I1707
sS'rapper'
p2365
I1434
sS'eyebrow'
p2366
I421
sS'stuff'
p2367
I53
sS'mascara'
p2368
I1738
sS'grab'
p2369
I29
sS'shouders'
p2370
I1028
sS'motorcycle'
p2371
I238
sS'spotted'
p2372
I2276
sS'frame'
p2373
I1117
sS'computer'
p2374
I1127
sS'powder'
p2375
I598
sS'violet'
p2376
I2480
sS'racket'
p2377
I1485
sS'wire'
p2378
I2135
sS'record'
p2379
I877
sS'icecream'
p2380
I661
sS'hammock'
p2381
I924
sS'unravel'
p2382
I1053
sS'closed'
p2383
I1869
sS'repetitively'
p2384
I1922
sS'juggle'
p2385
I395
sS'pistol'
p2386
I2293
sS'pants'
p2387
I1113
sS'joy'
p2388
I2257
sS'butts'
p2389
I856
sS'strides'
p2390
I1716
sS"someones'"
p2391
I158
sS'key'
p2392
I1694
sS'jog'
p2393
I256
sS'police'
p2394
I2305
sS'seagull'
p2395
I1985
sS'jon'
p2396
I1255
sS'monitor'
p2397
I1778
sS'drum'
p2398
I266
sS'sniff'
p2399
I253
sS'ramp'
p2400
I542
sS'aircraft'
p2401
I2398
sS'unbutton'
p2402
I706
sS'doorway'
p2403
I2222
sS'puff'
p2404
I205
sS'swallow'
p2405
I1460
sS'fry'
p2406
I1642
sS'jersey'
p2407
I380
sS'wall'
p2408
I524
sS'denim'
p2409
I2198
sS'walk'
p2410
I267
sS'gong'
p2411
I2113
sS'laugh'
p2412
I324
sS'table'
p2413
I449
sS'pouring'
p2414
I2402
sS'inhale'
p2415
I511
sS'pin'
p2416
I1854
sS'twerks'
p2417
I1462
sS'swimmer'
p2418
I1795
sS"it's"
p2419
I691
sS'polka'
p2420
I1870
sS'treat'
p2421
I633
sS'curtain'
p2422
I1601
sS'feather'
p2423
I1303
sS'shoulders'
p2424
I271
sS'redhead'
p2425
I2137
sS'controller'
p2426
I1022
sS'mannequin'
p2427
I1363
sS'bull'
p2428
I783
sS'bulb'
p2429
I579
sS'present'
p2430
I299
sS'eyelashes'
p2431
I1212
sS'plaid'
p2432
I1185
sS'laser'
p2433
I1191
sS'veer'
p2434
I1721
sS'runway'
p2435
I616
sS'tshirt'
p2436
I2443
sS'chalk'
p2437
I1049
sS'wild'
p2438
I2632
sS'bathtub'
p2439
I294
sS'groin'
p2440
I1383
sS'suckle'
p2441
I1068
sS'sholder'
p2442
I95
sS'counterwise'
p2443
I1504
sS'demo'
p2444
I1276
sS'squid'
p2445
I2619
sS'surface'
p2446
I832
sS'rooster'
p2447
I1699
sS'swinging'
p2448
I1420
sS'gunship'
p2449
I2408
sS'partner'
p2450
I1979
sS'sits'
p2451
I1307
sS'tattoo'
p2452
I1310
sS'moves'
p2453
I450
sS'balloon'
p2454
I1270
sS'cross'
p2455
I613
sS'parts'
p2456
I1209
sS'inch'
p2457
I2530
sS'party'
p2458
I2587
sS'gets'
p2459
I961
sS'elbows'
p2460
I1277
sS'ball'
p2461
I98
sS'drink'
p2462
I1145
sS'diploma'
p2463
I2208
sS'gestures'
p2464
I697
sS'pedal'
p2465
I1056
sS'whale'
p2466
I2210
sS'collar'
p2467
I1323
sS'numbered'
p2468
I2607
sS'off'
p2469
I31
sS'center'
p2470
I307
sS'weapon'
p2471
I1012
sS'obstacles'
p2472
I1564
sS'fighting'
p2473
I1480
sS'scissor'
p2474
I1682
sS'1'
I2517
sS'twirl'
p2475
I130
sS'position'
p2476
I260
sS'muscle'
p2477
I2384
sS'interlocked'
p2478
I1346
sS'bending'
p2479
I1364
sS'bananas'
p2480
I1668
sS'camel'
p2481
I2110
sS'rest'
p2482
I588
sS'lettuce'
p2483
I2356
sS'broomstick'
p2484
I2087
sS'coyotes'
p2485
I2219
sS'pendulum'
p2486
I2204
sS'tight'
p2487
I2156
sS'bell'
p2488
I2456
sS'sky'
p2489
I276
sS'bench'
p2490
I1106
sS'add'
p2491
I1535
sS'book'
p2492
I223
sS'circular'
p2493
I1925
sS'wet'
p2494
I683
sS'twerk'
p2495
I234
sS"infant's"
p2496
I1337
sS'balloons'
p2497
I643
sS'kick'
p2498
I105
sS'knob'
p2499
I1593
sS'soccerball'
p2500
I1200
sS'ledge'
p2501
I1742
sS'knod'
p2502
I1153
sS'solider'
p2503
I1680
sS'five'
p2504
I792
sS'desk'
p2505
I1253
sS'press'
p2506
I694
sS'popscicle'
p2507
I1860
sS'insert'
p2508
I1607
sS'trash'
p2509
I823
sS'like'
p2510
I115
sS'onion'
p2511
I2170
sS'chairs'
p2512
I1696
sS'sofa'
p2513
I578
sS'candy'
p2514
I1033
sS'tickled'
p2515
I2154
sS'sandwhich'
p2516
I2476
sS'chick'
p2517
I196
sS'mustace'
p2518
I1556
sS'soft'
p2519
I1464
sS'page'
p2520
I222
sS'heel'
p2521
I2237
sS'glare'
p2522
I820
sS'crazily'
p2523
I1444
sS'ballon'
p2524
I1585
sS'tumble'
p2525
I278
sS'hair'
p2526
I100
sS'gymnastics'
p2527
I1050
sS'trucker'
p2528
I2594
sS'thier'
p2529
I1306
sS'shrug'
p2530
I269
sS'leaf'
p2531
I799
sS'lean'
p2532
I658
sS'leap'
p2533
I647
sS'cradle'
p2534
I363
sS'masked'
p2535
I2471
sS'earrings'
p2536
I1962
sS'headlights'
p2537
I1427
sS'hose'
p2538
I1199
sS'cymbol'
p2539
I2126
sS'rock'
p2540
I637
sS'mits'
p2541
I2323
sS'forks'
p2542
I1949
sS'host'
p2543
I1750
sS'danceing'
p2544
I2234
sS'pasta'
p2545
I906
sS'stage'
p2546
I163
sS'drumming'
p2547
I2549
sS'getting'
p2548
I2628
sS'tray'
p2549
I2261
sS'surge'
p2550
I2612
sS'seeds'
p2551
I923
sS'beige'
p2552
I2192
sS'puppies'
p2553
I975
sS'tongue'
p2554
I403
sS'glasses'
p2555
I569
sS'swimming'
p2556
I2409
sS'owl'
p2557
I1491
sS'reptile'
p2558
I1691
sS'own'
p2559
I1442
sS'gymnastic'
p2560
I9
sS'socks'
p2561
I821
sS'three'
p2562
I1827
sS'guard'
p2563
I1861
sS'en'
p2564
I2353
sS'brush'
p2565
I329
sS'female'
p2566
I901
sS'brass'
p2567
I261
sS'knuckles'
p2568
I1780
sS'van'
p2569
I2389
sS'gerbil'
p2570
I2291
sS'transfer'
p2571
I2385
sS'vegetables'
p2572
I1515
sS'spots'
p2573
I1570
sS'doing'
p2574
I2279
sS'obstacle'
p2575
I2285
sS'drumstick'
p2576
I1024
sS'toothpaste'
p2577
I2075
sS'backhand'
p2578
I1824
sS'bobble'
p2579
I611
sS'unwrap'
p2580
I535
sS'bus'
p2581
I649
sS'but'
p2582
I2280
sS'high-fives'
p2583
I150
sS'bun'
p2584
I1175
sS'gain'
p2585
I817
sS'bum'
p2586
I1942
sS'ear'
p2587
I519
sS'eat'
p2588
I1085
sS'bud'
p2589
I1150
sS'he'
p2590
I1627
sS'count'
p2591
I692
sS'genitals'
p2592
I2041
sS'places'
p2593
I2047
sS'smooth'
p2594
I682
sS'flip'
p2595
I169
sS'placed'
p2596
I1120
sS'below'
p2597
I501
sS'cello'
p2598
I2595
sS'cake'
p2599
I1828
sS'piece'
p2600
I612
sS'stirring'
p2601
I2481
sS'skating'
p2602
I1081
sS'rabbits'
p2603
I2119
sS"red's"
p2604
I1724
sS'whisper'
p2605
I1342
sS'circus'
p2606
I2040
sS'kisses'
p2607
I331
sS'pie'
p2608
I1896
sS'maroon'
p2609
I2451
sS'pig'
p2610
I1007
sS'twist'
p2611
I197
sS"queen's"
p2612
I1877
sS'ink'
p2613
I2496
sS'kissed'
p2614
I321
sS'backflips'
p2615
I1272
sS'boop'
p2616
I807
sS'dressed'
p2617
I2206
sS'eliptical'
p2618
I1898
sS'guitarist'
p2619
I1470
sS'boot'
p2620
I2300
sS'other'
p2621
I20
sS'oar'
p2622
I1912
sS'branch'
p2623
I1424
sS'ponytail'
p2624
I1466
sS'frisbee'
p2625
I2532
sS'star'
p2626
I2232
sS'bundle'
p2627
I601
sS"monkey's"
p2628
I487
sS'stab'
p2629
I96
sS'veil'
p2630
I604
sS'firesticks'
p2631
I1606
sS'jab'
p2632
I1031
sS"dog's"
p2633
I326
sS'pupil'
p2634
I2203
sS'dominoes'
p2635
I2376
sS'yell'
p2636
I844
sa(lp2637
g1766
ag1404
ag2007
ag503
ag1372
ag349
aS'4'
ag2252
ag1392
ag2560
ag44
ag1543
ag854
ag1691
ag505
ag970
ag549
ag1136
ag1890
ag2121
ag2621
ag835
aS'5'
ag1074
ag2110
ag97
ag2000
ag1821
ag461
ag2369
ag1477
ag2469
ag2017
ag620
ag264
ag2204
ag2145
aS'a'
ag110
ag1675
ag2318
ag22
ag609
ag2267
ag490
ag1772
ag1368
ag183
ag993
ag962
ag1262
ag1454
ag961
ag2367
ag1264
ag1380
ag177
ag849
ag1459
ag1877
ag1868
ag677
ag23
ag24
ag2037
ag467
ag1071
ag2177
ag70
ag1277
aS'6'
ag1296
ag1224
ag990
ag545
ag2230
ag108
ag820
ag1316
ag254
ag496
aS'2'
ag2249
ag1718
ag1780
ag2281
ag618
ag1272
ag2319
ag1586
ag21
ag2057
aS'3'
ag870
ag1069
ag2442
ag2629
ag1613
ag2461
ag187
ag2526
ag1651
ag929
ag932
ag2306
ag2498
ag2355
ag390
ag227
ag1016
ag1920
ag1826
ag1401
ag62
ag1916
ag2510
ag890
ag1682
ag802
ag1388
ag1940
ag2300
aS'8'
ag121
ag2104
ag2206
ag2346
ag955
ag1137
ag2356
ag2475
ag623
ag572
ag2091
ag950
ag798
ag2124
ag2246
ag712
ag1955
ag1822
ag732
ag2154
ag1157
ag208
ag269
ag2111
ag756
ag976
ag233
ag2583
ag1040
ag561
ag1797
ag1444
ag1911
ag657
ag154
ag2391
ag2050
ag676
ag451
ag714
ag2546
ag1436
ag799
ag2335
ag1129
aS'9'
ag2595
ag727
ag1500
ag946
ag1583
ag1891
ag1979
ag597
ag901
ag671
ag980
ag2063
ag1084
ag1721
ag2345
ag2165
ag1207
ag1439
ag2086
ag762
ag940
ag960
ag324
ag2284
ag1103
ag1863
ag638
ag2517
ag2611
ag650
ag1752
ag1951
ag2208
ag2123
ag1351
ag1295
ag2404
ag1314
ag1188
ag639
ag667
ag16
ag862
ag1065
ag262
ag133
ag1541
ag562
ag1017
ag1564
ag2241
ag1879
ag421
ag2520
ag2492
ag196
ag2046
ag893
ag115
ag2332
ag1880
ag838
ag1355
ag314
ag1908
ag2495
ag738
ag751
ag1113
ag2371
ag2003
ag1845
ag25
ag688
ag804
ag381
ag1763
ag2214
ag679
ag157
ag2049
ag453
ag1741
ag1044
ag2399
ag2259
ag1892
ag2393
ag58
ag1679
ag1024
ag2476
ag2567
ag1222
ag1208
ag2334
ag192
ag2398
ag2410
ag736
ag2530
ag1760
ag2424
ag1139
ag1332
aS'7'
ag1607
ag2489
ag1259
ag2525
ag2129
ag1275
ag745
ag1784
ag728
ag1374
ag1116
ag2203
ag1448
ag69
ag882
ag1618
ag478
ag1315
ag805
ag2439
ag1247
ag626
ag1035
ag508
ag2430
ag513
ag2303
ag1021
ag468
ag1976
ag1540
ag1088
ag2470
ag2361
ag1710
ag1968
ag354
ag1641
ag1462
ag1627
ag1615
ag166
ag1939
ag942
ag1220
ag1039
ag2614
ag1227
ag523
ag2412
ag985
ag2633
ag1927
ag456
ag2565
ag458
ag2607
ag1068
ag1566
ag1180
ag1377
ag2310
ag708
ag1652
ag684
ag764
ag385
ag213
ag692
ag1572
ag823
ag1808
ag206
ag669
ag731
ag1215
ag2090
ag2268
ag2162
ag959
ag1742
ag1614
ag827
ag705
ag855
ag2143
ag2149
ag1796
ag2534
ag1141
ag591
ag1661
ag50
ag2255
ag1367
ag972
ag2272
ag781
ag150
ag1706
ag284
ag2064
ag429
ag1416
ag328
ag2407
ag1289
ag818
ag2349
ag1445
ag2287
ag2285
ag608
ag1758
ag968
ag2041
ag1592
ag311
ag701
ag1425
ag2385
ag1478
ag1369
ag303
ag592
ag1198
ag1164
ag1708
ag2554
ag1734
ag1362
ag1219
ag1461
ag2108
ag293
ag1092
ag449
ag2122
ag81
ag1013
ag128
ag79
ag1042
ag2205
ag141
ag1499
ag2366
ag2336
ag65
ag520
ag1977
ag2126
ag1958
ag1001
ag975
ag1364
ag1526
ag1250
ag1015
ag1617
ag1809
ag1173
ag1256
ag1996
ag1058
ag2253
ag1594
ag1843
ag443
ag704
ag911
ag1446
ag2183
ag1636
ag2413
ag2453
ag1671
ag171
ag1757
ag1621
ag2329
ag447
ag2210
ag2085
ag1807
ag2132
ag1455
ag720
ag2219
ag1853
ag219
ag2062
ag1031
ag845
ag1596
ag263
ag1605
ag1148
ag218
ag1430
ag1775
ag1899
ag1745
ag1666
ag1670
ag1328
ag190
ag259
ag1488
ag1616
ag80
ag1072
ag2628
ag750
ag1168
ag182
ag1342
ag2059
ag841
ag45
ag2263
ag1577
ag145
ag300
ag1405
ag260
ag2597
ag2029
ag2350
ag997
ag2320
ag57
ag986
ag812
ag2055
ag1302
ag2415
ag1246
ag673
ag1560
ag221
ag1522
ag2150
ag801
ag2587
ag1178
ag1450
ag220
ag1254
ag2408
ag2312
ag401
ag2237
ag930
ag450
ag281
ag53
ag1932
ag1046
ag1508
ag2580
ag1850
ag1205
ag1381
ag2297
ag1370
ag156
ag2400
ag1942
ag578
ag1970
ag399
ag1524
ag956
ag814
ag1683
ag278
ag1170
ag665
ag172
ag653
ag1298
ag485
ag1233
ag2102
ag1112
ag2280
ag2167
ag2105
ag2340
ag666
ag521
ag386
ag1791
ag2555
ag647
ag353
ag909
ag247
ag1435
ag376
ag1090
ag1101
ag2513
ag2429
ag839
ag1852
ag64
ag552
aS'v'
ag99
ag1360
ag1786
ag2482
ag2307
ag777
ag31
ag752
ag2112
ag982
ag1568
ag17
ag869
ag2375
ag367
ag1385
ag2627
ag944
ag19
ag2630
ag1919
ag1591
ag2274
ag89
ag1327
ag155
ag2579
ag2600
ag2455
ag1720
ag2212
ag2435
ag313
ag2109
ag1881
ag1195
ag1209
ag178
ag1493
ag557
ag374
ag2127
ag1486
ag2133
ag1150
ag1261
ag905
ag1535
ag2421
ag1008
ag2067
ag1836
ag2540
ag943
ag758
ag397
ag1563
ag926
ag2497
ag368
ag1938
ag1458
ag2533
ag158
ag2581
ag2277
ag532
ag1723
ag245
ag535
ag711
ag162
ag109
ag2532
ag754
ag1963
ag2380
ag1386
ag2181
ag464
ag1118
ag299
ag1548
ag1161
ag510
ag525
ag1975
ag797
ag509
ag180
ag1322
ag1527
ag72
ag1231
ag1218
ag117
ag1365
ag2594
ag2494
ag723
ag610
ag1000
ag1642
ag1339
ag1949
ag279
ag2419
ag2591
ag1067
ag2506
ag1580
ag534
ag2464
ag2359
ag2136
ag1128
ag1872
ag2077
ag1183
ag348
ag1539
ag2402
ag605
ag2244
ag2338
ag103
ag734
ag54
ag439
ag952
ag2009
ag2011
ag1957
ag1299
ag514
ag1931
ag1861
ag1228
ag1189
ag693
ag68
ag2065
ag536
ag1971
ag43
ag1574
ag721
ag1174
ag2166
ag566
ag1321
ag111
ag1631
ag988
aS'e'
ag340
ag1263
ag927
ag1584
ag710
ag39
ag277
ag1905
ag1475
ag2273
ag477
ag1270
ag2196
ag1504
ag448
ag1699
ag773
ag410
ag151
ag2357
ag579
ag1257
ag1946
ag1768
ag160
ag2113
ag2022
ag1053
ag1992
ag874
ag2084
ag444
ag807
ag1542
ag821
ag1484
ag330
ag2321
ag2353
ag1649
ag913
ag2061
ag1274
ag2428
ag2118
ag1286
ag320
ag191
ag244
ag1333
ag1359
ag2130
ag2504
ag1165
ag936
ag1646
ag541
ag2301
ag1175
ag2531
ag2038
ag1108
ag1713
ag627
ag528
ag606
ag1828
ag2616
ag1438
ag1123
ag2292
ag703
ag1978
ag1510
ag1320
ag867
ag755
ag2585
ag598
ag2023
ag2522
ag2561
ag2342
ag2509
ag1981
ag813
ag2134
ag1654
ag1064
ag1468
ag267
ag331
ag2446
ag822
ag865
ag1773
ag1418
ag2309
ag462
ag628
ag501
ag169
ag1787
ag824
ag2636
ag1443
ag1415
ag1546
ag186
ag2032
ag362
ag2286
ag2115
ag1012
ag1925
ag1604
ag2389
ag1130
ag1632
ag872
ag659
ag908
ag168
ag315
ag844
ag2215
ag685
ag2243
ag1659
ag2097
ag1514
ag1336
ag1687
ag564
ag1842
ag1813
ag417
ag2379
ag954
ag2158
ag715
ag1210
ag7
ag1172
ag537
ag2242
ag484
ag1285
ag675
ag2193
ag1063
ag2202
ag1284
ag602
ag1838
ag1515
ag1520
ag184
ag149
ag11
ag2190
ag2566
ag88
ag1121
ag1495
ag1075
ag2545
ag717
ag1688
ag139
ag1606
ag2224
ag538
ag568
ag2179
ag577
ag1167
ag1156
ag1702
ag843
ag817
ag1805
ag2019
ag2551
ag2381
ag576
ag2080
ag1347
ag2056
ag747
ag203
ag1849
ag140
ag1011
ag56
ag670
ag635
ag1533
ag1169
ag406
ag1007
ag551
ag1873
ag1138
ag772
ag1346
ag2137
ag1319
ag1451
ag977
ag2250
ag1311
ag1005
ag231
ag1637
ag1744
ag2234
ag270
ag1414
ag472
ag1909
ag2459
ag1590
ag1379
ag2027
ag394
ag1104
ag1307
ag2083
ag2358
ag1840
ag729
ag896
ag2213
ag1867
ag2553
ag393
ag1097
ag2289
ag1403
ag917
ag1855
ag483
ag979
ag1903
ag1674
ag1050
ag402
ag563
ag2275
ag308
ag616
ag846
ag2317
ag2351
ag1240
ag2076
ag837
ag1812
ag426
ag642
ag795
ag1694
ag788
ag1865
ag1950
ag886
ag2610
ag398
ag2025
ag2333
ag1408
ag2471
ag1280
ag1967
ag287
ag593
ag1340
ag1474
ag1926
ag466
ag1875
ag2426
ag148
ag2576
ag1525
ag933
ag1948
ag2370
ag1810
ag935
ag2632
ag1211
ag2514
ag863
ag987
ag1238
ag689
ag1736
ag1934
ag530
ag1054
ag1995
ag118
ag1004
ag1707
ag883
ag1988
ag859
ag2437
ag2527
ag995
ag984
ag2382
ag1893
ag2195
ag2465
ag1501
ag170
ag1883
ag1221
ag1252
ag2164
ag2036
ag363
ag1846
ag1387
ag991
ag2441
ag412
ag2343
ag1479
ag1482
ag210
ag1667
ag2006
ag1831
ag4
ag2228
ag1696
ag648
ag2602
ag434
ag1095
ag167
ag2588
ag585
ag195
ag603
ag519
ag337
ag2288
ag1864
ag334
ag1862
ag1552
ag480
ag1513
ag414
ag1467
ag1673
ag1820
ag36
ag1841
ag833
ag430
ag2490
ag2103
ag857
ag1536
ag482
ag522
ag2014
ag2387
ag1755
ag1778
ag49
ag2373
ag344
ag992
ag2596
ag387
ag253
ag237
ag1638
ag1660
ag396
ag2374
ag941
ag198
ag1653
ag759
ag1330
ag1300
ag2294
ag2159
ag2360
ag1492
ag619
ag691
ag106
ag1410
ag251
ag1357
ag957
ag2462
ag1726
ag945
ag1917
ag1697
ag2589
ag1483
ag202
ag2502
ag1999
ag323
ag1073
ag1194
ag2142
ag1866
ag1147
ag226
ag1558
ag188
ag143
ag924
ag994
ag948
ag1795
ag1610
ag185
ag357
ag1645
ag1126
ag408
ag2584
ag126
ag741
ag312
ag2151
ag102
ag2245
ag1924
ag28
ag248
ag2432
ag1747
ag2099
ag249
ag550
ag1982
ag2433
ag644
ag1991
ag753
ag84
ag852
ag1354
ag163
ag2538
ag2500
ag1442
ag1990
ag34
ag1028
ag1676
ag2147
ag1313
ag250
ag2456
ag1447
ag1014
ag2431
ag2344
ag463
ag916
ag351
ag261
ag1022
ag1551
ag1969
ag1664
ag1739
ag224
ag1622
ag135
ag2258
ag1771
ag1743
ag1473
ag939
ag1191
ag748
ag1308
ag2005
ag1507
ag318
ag1738
ag2128
ag1273
ag356
ag333
ag1089
ag298
ag1833
ag1733
ag2170
ag322
ag601
ag1437
ag1827
ag1712
ag283
ag2505
ag1398
ag2396
ag656
ag652
ag1236
ag1317
ag1419
ag1255
ag1729
ag104
ag1559
ag1534
ag1271
ag655
ag1684
ag1506
ag2454
ag189
ag2615
ag806
ag1719
ag2239
ag2444
ag2460
ag288
ag1814
ag873
ag1117
ag239
ag1860
ag1469
ag1338
ag1639
ag516
ag494
ag760
ag1601
ag584
ag724
ag1301
ag1823
ag1407
ag1066
ag1253
ag1737
ag1575
ag1052
ag1989
ag695
ag2423
ag719
ag2235
ag2529
ag2451
ag558
ag2257
ag2452
ag1395
ag1230
ag380
ag2094
ag124
ag471
ag919
ag1834
ag307
ag1131
ag1305
ag1589
ag2467
ag2226
ag422
ag1692
ag1245
ag1456
ag1140
ag1199
ag1714
ag1759
ag1689
ag1882
ag1026
ag996
ag2496
ag686
ag310
ag1111
ag1390
ag2605
ag782
ag966
ag2051
ag2478
ag621
ag861
ag1201
ag457
ag1798
ag132
ag1669
ag555
ag789
ag631
ag2082
ag1571
ag1389
ag1717
ag1115
ag958
ag2427
ag2479
ag2096
ag938
ag2260
ag885
ag2157
ag726
ag1457
ag722
ag51
ag216
ag699
ag2265
ag1158
ag2125
ag1505
ag1817
ag1569
ag567
ag2440
ag661
ag662
ag1426
ag75
ag425
ag1143
ag2114
ag229
ag1213
ag98
ag1226
ag42
ag1952
ag2071
ag1382
ag47
ag1964
ag624
ag1954
ag1229
ag615
ag907
ag2298
ag832
ag2015
ag1716
ag1728
ag1947
ag95
ag290
ag274
ag345
ag1306
ag596
ag947
ag1463
ag2448
ag1984
ag305
ag1554
ag2623
ag794
ag1087
ag2537
ag335
ag1776
ag2271
ag1279
ag377
ag951
ag2365
ag518
ag1983
ag1334
ag1914
ag848
ag350
ag1076
ag2559
ag479
ag2523
ag1297
ag604
ag2299
ag1665
ag810
ag1921
ag2313
ag2248
ag2117
ag1366
ag309
ag295
ag1397
ag359
ag41
ag2405
ag1668
ag2417
ag809
ag2519
ag37
ag2624
ag1749
ag27
ag1896
ag2619
ag1532
ag778
ag2198
ag1581
ag1754
ag1832
ag1972
ag2066
ag470
ag2473
ag382
ag101
ag1206
ag433
ag2377
ag1127
ag1602
ag1735
ag1350
ag1003
ag2557
ag1242
ag1907
ag922
ag418
ag1730
ag423
ag1790
ag1727
ag868
ag1806
ag2341
ag1409
ag2443
ag771
ag1765
ag2238
ag709
ag1481
ag302
ag2116
ag611
ag204
ag633
ag2572
ag2315
ag1751
ag1149
ag1420
ag12
ag654
ag765
ag2042
ag2270
ag498
ag742
ag1045
ag18
ag1062
ag130
ag928
ag1200
ag326
ag1429
ag2491
ag342
ag716
ag1471
ag1077
ag403
ag1376
ag364
ag1176
ag1349
ag404
ag1634
ag1941
ag746
ag1496
ag1427
ag175
ag438
ag1186
ag1587
ag6
ag2518
ag465
ag257
ag1685
ag1134
ag1701
ag282
ag1179
ag2472
ag1373
ag1094
ag569
ag1779
ag2188
ag2573
ag544
ag658
ag1516
ag2012
ag1241
ag1929
ag214
ag136
ag2223
ag1698
ag1512
ag1579
ag2054
ag122
ag2524
ag82
ag1895
ag486
ag1783
ag87
ag1732
ag1643
ag2499
ag1056
ag2039
ag1906
ag1767
ag1085
ag923
ag1839
ag2422
ag1944
ag454
ag1059
ag1348
ag2631
ag2508
ag1800
ag134
ag2362
ag127
ag963
ag2010
ag836
ag209
ag672
ag1193
ag1623
ag113
ag1576
ag1943
ag1155
ag1344
ag1472
ag889
ag476
ag2590
ag617
ag1788
ag1132
ag78
ag2024
ag565
ag1154
ag2026
ag2293
ag766
ag526
ag8
ag1870
ag571
ag2406
ag1146
ag252
ag1722
ag573
ag828
ag116
ag411
ag740
ag375
ag1635
ag2186
ag13
ag2191
ag2081
ag2045
ag372
ag1184
ag2314
ag763
ag1993
ag131
ag272
ag1225
ag989
ag1937
ag2480
ag2139
ag1203
ag1352
ag1217
ag548
ag1782
ag1657
ag255
ag515
ag2089
ag1987
ag2503
ag86
ag2474
ag343
ag780
ag1753
ag243
ag473
ag1961
ag2172
ag383
ag2558
ag347
ag1902
ag2392
ag1898
ag2512
ag5
ag1025
ag2447
ag622
ag371
ag48
ag2325
ag2131
ag575
ag2216
ag2364
ag1980
ag2153
ag2169
ag338
ag499
ag1856
ag459
ag1930
ag2390
ag2236
ag749
ag2339
ag694
ag2434
ag999
ag2020
ag2604
ag1399
ag1159
ag379
ag776
ag325
ag1326
ag560
ag1371
ag2016
ag825
ag1678
ag2152
ag713
ag2368
ag1119
ag1799
ag1343
ag2501
ag1835
ag1612
ag1894
ag1816
ag2304
ag76
ag336
ag2543
ag153
ag268
ag1310
ag1582
ag983
ag67
ag888
ag1854
ag159
ag1291
ag1871
ag1396
ag436
ag1518
ag1887
ag14
ag1740
ag2106
ag533
ag228
ag783
ag1781
ag1585
ag123
ag1318
ag587
ag495
ag2397
ag1769
ag2568
ag816
ag292
ag2047
ag346
ag1124
ag1105
ag176
ag384
ag2324
ag2328
ag1847
ag511
ag2233
ag1083
ag2418
ag1335
ag2087
ag1876
ag266
ag583
ag199
ag2185
ag2347
ag786
ag630
ag2171
ag1959
ag2033
ag360
ag678
ag504
ag1829
ag296
ag215
ag1082
ag629
ag1912
ag2296
ag273
ag1910
ag2044
ag1556
ag197
ag2578
ag1888
ag1309
ag2562
ag2599
ag1440
ag895
ag1160
ag2068
ag811
ag212
ag2323
ag1830
ag1818
ag395
ag2058
ag232
ag1837
ag1353
ag1936
ag725
ag1030
ag1517
ag687
ag1020
ag280
ag2031
ag2053
ag1658
ag1080
ag2416
ag1945
ag500
ag59
ag1341
ag912
ag2507
ag2563
ag83
ag20
ag1142
ag690
ag1268
ag761
ag1497
ag2383
ag2420
ag329
ag1874
ag1629
ag1464
ag1530
ag768
ag2612
ag2178
ag1588
ag238
ag2146
ag612
ag1009
ag2217
ag921
ag914
ag733
ag1037
ag1466
ag1609
ag9
ag965
ag2278
ag1851
ag858
ag2608
ag437
ag2618
ag105
ag1748
ag793
ag2060
ag1549
ag1282
ag1010
ag1283
ag1603
ag637
ag1858
ag1048
ag645
ag2622
ag1599
ag1731
ag1529
ag2269
ag38
ag586
ag428
ag1928
ag1258
ag2384
ag1644
ag1935
ag2493
ag1402
ag1018
ag1251
ag1431
ag1204
ag2052
ag1815
ag1962
ag2348
ag910
ag361
ag1421
ag1709
ag632
ag1789
ag2240
ag2586
ag1043
ag341
ag1055
ag1393
ag1394
ag590
ag2542
ag2316
ag474
ag767
ag488
ag1086
ag875
ag831
ag931
ag125
ag1060
ag1561
ag1844
ag2536
ag1663
ag120
ag871
ag77
ag1973
ag2207
ag599
ag355
ag1153
ag165
ag339
ag452
ag1109
ag540
ag2254
ag1292
ag2450
ag1098
ag2004
ag241
ag2322
ag847
ag2395
ag2247
ag29
ag1114
ag1049
ag613
ag1913
ag600
ag897
ag920
ag55
ag319
ag90
ag66
ag1232
ag1288
ag1553
ag1278
ag1562
ag969
ag2209
ag1428
ag415
ag1956
ag1662
ag181
ag850
ag2013
ag1801
ag574
ag1151
ag2305
ag431
ag236
ag2043
ag358
ag2197
ag1885
ag787
ag840
ag967
ag1523
ag527
ag10
ag2266
ag147
ag829
ag1452
ag2008
ag469
ag1304
ag1619
ag887
ag1519
ag2295
ag2606
ag2592
ag1145
ag2174
ag866
ag1023
ag1375
ag2593
ag1503
ag2075
ag33
ag258
ag481
ag1804
ag1122
ag2231
ag842
ag1647
ag1966
ag2352
ag441
ag2251
ag2220
ag369
ag1029
ag1432
ag1197
ag512
ag1216
ag240
ag2141
ag1081
ag1953
ag2069
ag26
ag2577
ag256
ag1901
ag52
ag1293
ag173
ag1476
ag2182
ag2264
ag779
ag1237
ag30
ag2484
ag74
ag2079
ag640
ag1918
ag1803
ag1986
ag517
ag506
ag2095
ag2161
ag643
ag2256
ag902
ag1265
ag1358
ag1214
ag1125
ag1331
ag1144
ag892
ag2194
ag1705
ag2481
ag2363
ag668
ag2411
ag680
ag1152
ag697
ag388
ag2119
ag2603
ag594
ag894
ag2184
ag2092
ag900
ag790
ag2539
ag416
ag1460
ag707
ag646
ag492
ag234
ag1266
ag903
ag2378
ag2144
ag2425
ag1811
ag1192
ag1281
ag119
ag937
ag1538
ag420
ag877
ag1547
ag1363
ag1019
ag1825
ag1923
ag1411
ag880
ag1650
ag2515
ag2302
ag2487
ag405
ag194
ag625
ag1424
ag1312
ag2311
ag1110
ag2035
ag2100
ag1096
ag1290
ag1162
ag427
ag2511
ag316
ag100
ag2098
ag1041
ag1578
ag265
ag2074
ag1093
ag1107
ag46
ag1441
ag803
ag304
ag1686
ag1006
ag1166
ag222
ag193
ag1235
ag660
ag475
ag2552
ag2200
ag138
ag1774
ag1889
ag1303
ag2409
ag2175
ag1036
ag876
ag1485
ag2634
ag2486
ag1528
ag2617
ag2189
ag2463
ag1593
ag2466
ag2135
ag1494
ag73
ag1628
ag1182
ag1792
ag1625
ag1163
ag2485
ag230
ag271
ag2403
ag1202
ag815
ag830
ag531
ag2201
ag1181
ag205
ag819
ag1491
ag2626
ag1417
ag2544
ag1761
ag553
ag2521
ag455
ag489
ag487
ag539
ag1633
ag2282
ag2337
ag1378
ag915
ag1324
ag1323
ag1715
ag2327
ag301
ag2155
ag649
ag998
ag614
ag1711
ag2388
ag851
ag730
ag291
ag2549
ag2120
ag1555
ag651
ag663
ag800
ag743
ag1487
ag1648
ag432
ag1135
ag2093
ag1032
ag1611
ag636
ag2372
ag1859
ag1027
ag2574
ag2582
ag1185
ag1681
ag409
ag634
ag2575
ag2138
ag1960
ag700
ag1573
ag2072
ag2570
ag1700
ag2386
ag378
ag774
ag2088
ag1544
ag808
ag542
ag2620
ag1383
ag898
ag1449
ag424
ag2394
ag294
ag164
ag85
ag1703
ag964
ag246
ag739
ag1249
ag332
ag853
ag1762
ag179
ag1260
ag860
ag1489
ag529
ag107
ag2541
ag306
ag2291
ag791
ag1550
ag2354
ag442
ag588
ag2140
ag1187
ag32
ag2225
ag1345
ag1904
ag674
ag1361
ag2156
ag327
ag1672
ag1223
ag2308
ag978
ag1915
ag146
ag94
ag392
ag2330
ag391
ag595
ag2073
ag2564
ag321
ag2290
ag2483
ag370
ag974
ag899
ag2218
ag769
ag1239
ag1794
ag1509
ag161
ag1423
ag1886
ag2078
ag2176
ag460
ag1047
ag1974
ag2030
ag1545
ag365
ag2635
ag1234
ag1502
ag735
ag200
ag1630
ag1294
ag543
ag2477
ag2571
ag96
ag1878
ag1724
ag2569
ag2028
ag1994
ag1750
ag366
ag737
ag286
ag2227
ag1965
ag2401
ag702
ag1620
ag2101
ag2414
ag1626
ag211
ag446
ag1244
ag1624
ag2449
ag2556
ag174
ag2211
ag1498
ag1869
ag1337
ag144
ag2326
ag785
ag1248
ag934
ag1897
ag1212
ag1057
ag2262
ag493
aS't'
ag435
ag682
ag1704
ag971
ag953
ag1819
ag2173
ag1597
ag2048
ag1269
ag373
ag2199
ag1511
ag1412
ag491
ag2187
ag1857
ag2436
ag1793
ag1933
ag2261
ag60
ag1537
ag2331
ag297
ag2609
ag2168
ag698
ag826
ag1785
ag2488
ag1770
ag2192
ag580
ag1690
ag2180
ag2232
ag1680
ag918
ag235
ag683
ag949
ag906
ag1693
ag1356
ag2535
ag152
ag1120
ag2276
ag718
ag2516
ag1824
ag223
ag1695
ag2376
ag2601
ag413
ag129
ag1106
ag2018
ag1384
ag1070
ag1453
ag1034
ag1434
ag114
ag201
ag289
ag641
ag1413
ag2613
ag547
ag1677
ag1777
ag559
ag63
ag1900
ag1565
ag352
ag524
ag2034
ag1656
ag242
ag2163
ag507
ag400
ag864
ag582
ag681
ag1848
ag664
aS'1'
ag696
ag1243
ag1325
ag1465
ag1329
ag2002
ag497
ag1746
ag92
ag2160
ag1038
ag1433
ag2457
ag502
ag2625
ag2222
ag757
ag1400
ag1033
ag1422
ag1884
ag1600
ag1608
ag275
ag891
ag1196
ag607
ag2040
ag317
ag93
ag2001
ag2547
ag881
ag1177
ag1922
ag925
ag1490
ag1079
ag856
ag2283
ag2279
ag276
ag1287
ag1802
ag556
ag35
ag784
ag706
ag1640
ag207
ag570
ag1764
ag744
ag2021
ag1099
ag407
ag1091
ag1997
ag142
ag1985
ag2070
ag1002
ag1406
ag2229
ag554
ag2107
ag440
ag1557
ag589
ag2458
ag1061
ag1051
ag1521
ag1655
ag1102
ag1267
ag2528
ag2598
ag581
ag217
ag1998
ag71
ag285
ag796
ag1570
ag981
ag1598
ag878
ag775
ag2468
ag1391
ag546
ag792
ag1190
ag2550
ag91
ag1171
ag112
ag834
ag1567
ag445
ag2445
ag15
ag40
ag1480
ag61
ag137
ag1725
ag225
ag3
ag2548
ag1595
ag1078
ag419
ag2438
ag879
ag1531
ag1100
ag973
ag2148
ag1133
ag389
ag1470
ag884
ag770
ag1276
ag904
ag1756
ag2221
aa.