(dp1
S'ladybird'
p2
I0
sS'hats'
p3
I1
sS'yellow'
p4
I2
sS'four'
p5
I3
sS'hanging'
p6
I4
sS'trolley'
p7
I5
sS'teapot'
p8
I6
sS'trousers'
p9
I7
sS'blanket'
p10
I8
sS'rise'
p11
I9
sS'vase'
p12
I11
sS'confetti'
p13
I12
sS'monkeys'
p14
I13
sS'hula-hoop'
p15
I14
sS'whisk'
p16
I15
sS'parrot'
p17
I16
sS'skills'
p18
I17
sS'crotch'
p19
I18
sS'venus'
p20
I19
sS'clothes'
p21
I20
sS'bicycle'
p22
I21
sS'phones'
p23
I22
sS'feathers'
p24
I23
sS'horn'
p25
I24
sS'tires'
p26
I25
sS'dish'
p27
I769
sS'gator'
p28
I27
sS'street'
p29
I28
sS'panda'
p30
I29
sS'blue'
p31
I30
sS'revolver'
p32
I31
sS'lights'
p33
I32
sS'glaciers'
p34
I33
sS'net'
p35
I34
sS'helmets'
p36
I35
sS'sinks'
p37
I36
sS'pancakes'
p38
I37
sS'studio'
p39
I38
sS'stares'
p40
I39
sS'crossbow'
p41
I40
sS'luggage'
p42
I41
sS'employees'
p43
I258
sS'smoke'
p44
I43
sS'climber'
p45
I44
sS'strap'
p46
I45
sS'jackets'
p47
I46
sS'gorillas'
p48
I47
sS'cocaine'
p49
I48
sS'bra'
p50
I49
sS'hospital'
p51
I50
sS'coins'
p52
I51
sS'barks'
p53
I52
sS'call'
p54
I53
sS'calf'
p55
I54
sS'refection'
p56
I55
sS'crossbar'
p57
I56
sS'glass'
p58
I216
sS'hole'
p59
I58
sS'blindfold'
p60
I59
sS'room'
p61
I60
sS'work'
p62
I386
sS'worm'
p63
I62
sS'roof'
p64
I63
sS'locker'
p65
I64
sS'locket'
p66
I65
sS'grenade'
p67
I66
sS'cone'
p68
I263
sS'vodka'
p69
I68
sS'wand'
p70
I69
sS'dolphin'
p71
I70
sS'woodpecker'
p72
I71
sS'hog'
p73
I72
sS'nuts'
p74
I73
sS'machine'
p75
I74
sS'boats'
p76
I75
sS'cheetah'
p77
I76
sS'beach'
p78
I77
sS'pizza'
p79
I78
sS'poker'
p80
I79
sS'briefcase'
p81
I80
sS'mouths'
p82
I81
sS'ladder'
p83
I82
sS'lab'
p84
I83
sS'dinosaurs'
p85
I84
sS'passageway'
p86
I85
sS'sparkler'
p87
I86
sS'headdress'
p88
I87
sS'shirt'
p89
I88
sS'cigarettes'
p90
I89
sS'green'
p91
I90
sS'ambulance'
p92
I91
sS'wing'
p93
I92
sS'backdrop'
p94
I93
sS'wine'
p95
I94
sS'salon'
p96
I95
sS'office'
p97
I96
sS'muffin'
p98
I97
sS'oven'
p99
I98
sS'keyboard'
p100
I99
sS'windshield'
p101
I100
sS'fir'
p102
I101
sS'harmonica'
p103
I102
sS'backpack'
p104
I103
sS'avocado'
p105
I104
sS'crew'
p106
I105
sS'fin'
p107
I106
sS'coffee'
p108
I107
sS'collide'
p109
I108
sS'band'
p110
I109
sS'caterpillar'
p111
I110
sS'giraffe'
p112
I111
sS'effects'
p113
I112
sS'bank'
p114
I113
sS'bread'
p115
I114
sS'meat'
p116
I115
sS'rocks'
p117
I116
sS'volcano'
p118
I117
sS'meal'
p119
I118
sS'tumbleweed'
p120
I119
sS'snakes'
p121
I120
sS'garment'
p122
I121
sS'spider'
p123
I122
sS'sled'
p124
I123
sS'waffle'
p125
I124
sS'poncho'
p126
I125
sS'whip'
p127
I126
sS'cameras'
p128
I127
sS'washer'
p129
I128
sS'barrier'
p130
I129
sS'carcass'
p131
I130
sS'dracula'
p132
I131
sS'hand'
p133
I276
sS'lollipop'
p134
I133
sS'aisle'
p135
I134
sS'dentures'
p136
I135
sS'hoop'
p137
I136
sS'hook'
p138
I871
sS'scissors'
p139
I138
sS'hood'
p140
I139
sS'toy'
p141
I140
sS'fence'
p142
I788
sS'elevator'
p143
I142
sS'master'
p144
I143
sS'blossoms'
p145
I144
sS'critter'
p146
I145
sS'legs'
p147
I146
sS'dogs'
p148
I147
sS'curtains'
p149
I148
sS'ceiling'
p150
I149
sS'bacon'
p151
I150
sS'tool'
p152
I151
sS'cereal'
p153
I152
sS'crawl'
p154
I153
sS'boarding'
p155
I154
sS'handcuffs'
p156
I155
sS'tree'
p157
I156
sS'scenes'
p158
I157
sS'project'
p159
I158
sS'hologram'
p160
I159
sS'rag'
p161
I1154
sS'handkerchief'
p162
I161
sS'runner'
p163
I162
sS'ram'
p164
I163
sS'paddles'
p165
I164
sS'ginger'
p166
I165
sS'rat'
p167
I166
sS'shell'
p168
I167
sS'ocean'
p169
I168
sS'spade'
p170
I169
sS'ray'
p171
I170
sS'necktie'
p172
I171
sS'bleachers'
p173
I172
sS'racers'
p174
I173
sS'chess'
p175
I174
sS'doors'
p176
I175
sS'paintbrush'
p177
I176
sS'circles'
p178
I177
sS'object'
p179
I178
sS'exercises'
p180
I179
sS'coin'
p181
I181
sS'singer'
p182
I182
sS'camp'
p183
I1119
sS'dog'
p184
I184
sS'dot'
p185
I185
sS'bomb'
p186
I186
sS'queen'
p187
I187
sS'colors'
p188
I188
sS'earth'
p189
I189
sS'sharks'
p190
I190
sS'touches'
p191
I191
sS'geyser'
p192
I192
sS'cougar'
p193
I193
sS'bush'
p194
I194
sS'rice'
p195
I195
sS'plate'
p196
I196
sS'cartwheels'
p197
I197
sS'stop'
p198
I198
sS'pocket'
p199
I199
sS'watermelon'
p200
I200
sS'cushion'
p201
I201
sS'bat'
p202
I202
sS'bar'
p203
I1288
sS'covering'
p204
I204
sS'boarder'
p205
I205
sS'pretzel'
p206
I206
sS'bag'
p207
I207
sS'discs'
p208
I208
sS'gears'
p209
I209
sS'steak'
p210
I210
sS'ears'
p211
I211
sS'liquor'
p212
I212
sS'noodles'
p213
I213
sS'hammer'
p214
I214
sS'pebbles'
p215
I215
sS'feline'
p216
I217
sS'rings'
p217
I218
sS'mud'
p218
I219
sS'stamps'
p219
I1358
sS'finger'
p220
I221
sS'pets'
p221
I222
sS'yogurt'
p222
I223
sS'baboon'
p223
I224
sS'shields'
p224
I225
sS'360'
p225
I226
sS'claws'
p226
I227
sS'lotion'
p227
I228
sS'toothbrush'
p228
I229
sS'aquarium'
p229
I230
sS'wheelbarrow'
p230
I231
sS'modeling'
p231
I232
sS'convertible'
p232
I233
sS'kitchen'
p233
I234
sS'cot'
p234
I235
sS'cow'
p235
I236
sS'cob'
p236
I237
sS'pita'
p237
I238
sS'spear'
p238
I239
sS'elf'
p239
I240
sS'lanterns'
p240
I241
sS'trust'
p241
I242
sS'headlights'
p242
I243
sS'bathroom'
p243
I244
sS'ropes'
p244
I245
sS'three'
p245
I246
sS'blower'
p246
I247
sS'beer'
p247
I248
sS'trigger'
p248
I249
sS'stadium'
p249
I250
sS'dots'
p250
I251
sS'drugs'
p251
I252
sS'lift'
p252
I253
sS'glider'
p253
I254
sS'tank'
p254
I255
sS'lizard'
p255
I256
sS'property'
p256
I257
sS'leaves'
p257
I42
sS'seven'
p258
I259
sS'cane'
p259
I260
sS'handrail'
p260
I261
sS'sticker'
p261
I262
sS'cans'
p262
I67
sS'violin'
p263
I264
sS'mouse'
p264
I265
sS'crusaders'
p265
I266
sS'bottles'
p266
I267
sS'vegetable'
p267
I268
sS'couple'
p268
I269
sS'bells'
p269
I270
sS'wheel'
p270
I271
sS'moose'
p271
I563
sS'rail'
p272
I273
sS'microphone'
p273
I1339
sS'rain'
p274
I275
sS'kit'
p275
I132
sS'waterfall'
p276
I277
sS'butter'
p277
I278
sS'camcorder'
p278
I810
sS'toque'
p279
I280
sS'laptop'
p280
I281
sS'rodent'
p281
I282
sS'goggles'
p282
I283
sS'human'
p283
I284
sS'barbel'
p284
I285
sS'spectacles'
p285
I286
sS'character'
p286
I287
sS'hay'
p287
I288
sS'spread'
p288
I289
sS'board'
p289
I290
sS'prison'
p290
I291
sS'hat'
p291
I292
sS'boxes'
p292
I293
sS'spanner'
p293
I294
sS'cape'
p294
I295
sS'gift'
p295
I296
sS'divers'
p296
I297
sS'pavement'
p297
I298
sS'steps'
p298
I299
sS'crown'
p299
I300
sS'crows'
p300
I301
sS'intern'
p301
I302
sS'purple'
p302
I303
sS'fox'
p303
I304
sS'rhino'
p304
I305
sS'FRAMEQAtile'
p305
I306
sS'treadmill'
p306
I307
sS'stingray'
p307
I308
sS'cord'
p308
I309
sS'corn'
p309
I310
sS'trampoline'
p310
I311
sS'lamps'
p311
I312
sS'opossums'
p312
I313
sS'choke'
p313
I314
sS'dinner'
p314
I315
sS'crucifix'
p315
I316
sS'octopus'
p316
I317
sS'sweater'
p317
I318
sS'budgerigar'
p318
I319
sS'float'
p319
I320
sS'chimp'
p320
I321
sS'two'
p321
I818
sS'down'
p322
I323
sS'bats'
p323
I324
sS'wrap'
p324
I325
sS'cubicle'
p325
I326
sS'piglet'
p326
I1075
sS'fabric'
p327
I328
sS'fight'
p328
I329
sS'fork'
p329
I330
sS'fireworks'
p330
I331
sS'landing'
p331
I332
sS'diaper'
p332
I333
sS'otter'
p333
I334
sS'inside'
p334
I335
sS'coverings'
p335
I336
sS'boomerang'
p336
I337
sS'napkin'
p337
I561
sS'shimmies'
p338
I339
sS'covers'
p339
I340
sS'swatter'
p340
I341
sS'ship'
p341
I342
sS'lees'
p342
I343
sS'floor'
p343
I344
sS'tip'
p344
I345
sS'dace'
p345
I346
sS'warehouse'
p346
I347
sS'tie'
p347
I348
sS'ribbons'
p348
I349
sS'roll'
p349
I350
sS'picture'
p350
I351
sS'lollipops'
p351
I352
sS'pizzas'
p352
I353
sS'bullet'
p353
I355
sS'potato'
p354
I356
sS'beds'
p355
I742
sS'gorilla'
p356
I744
sS'peacock'
p357
I359
sS'dance'
p358
I360
sS'switches'
p359
I361
sS'crocodile'
p360
I362
sS'skate'
p361
I363
sS'chair'
p362
I364
sS'milk'
p363
I365
sS'varnish'
p364
I366
sS'technique'
p365
I367
sS'bicycles'
p366
I368
sS'melon'
p367
I369
sS'brown'
p368
I370
sS'string'
p369
I371
sS'kitten'
p370
I372
sS'tricycle'
p371
I373
sS'malamute'
p372
I374
sS'turns'
p373
I375
sS'gun'
p374
I376
sS'gum'
p375
I377
sS'subway'
p376
I378
sS'guitars'
p377
I379
sS'team'
p378
I380
sS'lever'
p379
I381
sS'sidewalk'
p380
I898
sS'dip'
p381
I383
sS'round'
p382
I384
sS'bulldozer'
p383
I385
sS'blade'
p384
I61
sS'temples'
p385
I387
sS'bock'
p386
I388
sS'attic'
p387
I389
sS'trails'
p388
I390
sS'yolks'
p389
I391
sS'sign'
p390
I392
sS'candlestick'
p391
I180
sS'drinks'
p392
I394
sS'headset'
p393
I395
sS'wildebeest'
p394
I396
sS'uniform'
p395
I397
sS'tarantula'
p396
I398
sS'orangutans'
p397
I399
sS'makeup'
p398
I400
sS'costumes'
p399
I401
sS'water'
p400
I402
sS'goldfish'
p401
I403
sS'box'
p402
I404
sS'boy'
p403
I405
sS'bot'
p404
I406
sS'bow'
p405
I407
sS'boa'
p406
I408
sS'pillow'
p407
I409
sS'tuxedo'
p408
I410
sS'cloak'
p409
I576
sS'kayak'
p410
I411
sS'snowboard'
p411
I412
sS'marker'
p412
I413
sS'hamburger'
p413
I414
sS'streetcar'
p414
I415
sS'projector'
p415
I416
sS'working'
p416
I417
sS'lockers'
p417
I418
sS'tightly'
p418
I419
sS'vineyard'
p419
I420
sS'handler'
p420
I421
sS'intently'
p421
I422
sS'envelope'
p422
I423
sS'chocolate'
p423
I424
sS'olive'
p424
I425
sS'cases'
p425
I426
sS'blinds'
p426
I427
sS'mascot'
p427
I428
sS'fly'
p428
I429
sS'car'
p429
I430
sS'cap'
p430
I431
sS'cat'
p431
I432
sS'wands'
p432
I433
sS'soup'
p433
I1177
sS'can'
p434
I435
sS'cam'
p435
I436
sS'cab'
p436
I437
sS'meatball'
p437
I438
sS'heart'
p438
I439
sS'dropper'
p439
I440
sS'figure'
p440
I441
sS'chip'
p441
I442
sS'agent'
p442
I443
sS'parachute'
p443
I444
sS'drawer'
p444
I445
sS'handle'
p445
I1365
sS'clothing'
p446
I447
sS'sailboat'
p447
I448
sS'necklaces'
p448
I449
sS'freezer'
p449
I450
sS'lounge'
p450
I451
sS'earpiece'
p451
I838
sS'sword'
p452
I453
sS'elephant'
p453
I454
sS'pins'
p454
I455
sS't-shirts'
p455
I456
sS'map'
p456
I457
sS'product'
p457
I458
sS'mat'
p458
I459
sS'staircase'
p459
I460
sS'max'
p460
I461
sS'dive'
p461
I462
sS'motorway'
p462
I463
sS'dove'
p463
I464
sS'man'
p464
I465
sS'classroom'
p465
I466
sS'surfing'
p466
I467
sS'branches'
p467
I468
sS'drumsticks'
p468
I469
sS'wheelchair'
p469
I470
sS'mango'
p470
I471
sS'truck'
p471
I1341
sS'basket'
p472
I473
sS'wolves'
p473
I474
sS'gesture'
p474
I475
sS'shield'
p475
I476
sS'tablets'
p476
I477
sS'shake'
p477
I478
sS'marshmallows'
p478
I479
sS'pointer'
p479
I480
sS'birds'
p480
I481
sS'statuettes'
p481
I482
sS'cola'
p482
I483
sS'group'
p483
I484
sS'accordion'
p484
I485
sS'platform'
p485
I486
sS'window'
p486
I487
sS'main'
p487
I488
sS'tiara'
p488
I489
sS'piglets'
p489
I490
sS'apron'
p490
I491
sS'lunch'
p491
I492
sS'tails'
p492
I493
sS'gate'
p493
I494
sS'bath'
p494
I322
sS'hall'
p495
I495
sS'barrow'
p496
I496
sS'wagon'
p497
I497
sS'drop'
p498
I498
sS'rock'
p499
I499
sS'turtle'
p500
I501
sS'elephants'
p501
I502
sS'torch'
p502
I503
sS'goose'
p503
I504
sS'zebra'
p504
I505
sS'girl'
p505
I506
sS'pills'
p506
I507
sS'irons'
p507
I508
sS'canvas'
p508
I509
sS'container'
p509
I510
sS'squares'
p510
I511
sS'eagle'
p511
I512
sS'cars'
p512
I513
sS'cart'
p513
I514
sS'inhaler'
p514
I515
sS'headband'
p515
I516
sS'card'
p516
I517
sS'underwear'
p517
I518
sS'possum'
p518
I519
sS'backside'
p519
I520
sS'flare'
p520
I521
sS'headphones'
p521
I522
sS'saucers'
p522
I1377
sS'pelican'
p523
I523
sS'crib'
p524
I524
sS'one'
p525
I525
sS'rink'
p526
I526
sS'ring'
p527
I527
sS'concert'
p528
I528
sS'sheep'
p529
I529
sS'sheet'
p530
I530
sS'white'
p531
I531
sS'speaking'
p532
I532
sS'eyes'
p533
I533
sS'inmates'
p534
I534
sS'butt'
p535
I535
sS'flowers'
p536
I536
sS'holder'
p537
I537
sS'cracks'
p538
I538
sS'coats'
p539
I539
sS'apples'
p540
I540
sS'cymbals'
p541
I541
sS'fruits'
p542
I542
sS'tractor'
p543
I543
sS'marijuana'
p544
I544
sS'alley'
p545
I545
sS'ant'
p546
I546
sS'pastry'
p547
I547
sS'owls'
p548
I548
sS'snout'
p549
I549
sS'equipment'
p550
I550
sS'hookah'
p551
I551
sS'performance'
p552
I552
sS'tambourine'
p553
I553
sS'butterfly'
p554
I554
sS'hooves'
p555
I555
sS'track'
p556
I556
sS'buffet'
p557
I557
sS'cloth'
p558
I559
sS'montage'
p559
I560
sS'shooter'
p560
I338
sS'drive'
p561
I562
sS'stockings'
p562
I564
sS'hedgehog'
p563
I565
sS'shop'
p564
I566
sS'perch'
p565
I567
sS'shot'
p566
I568
sS'chicks'
p567
I857
sS'dandelions'
p568
I570
sS'shoe'
p569
I571
sS'slot'
p570
I572
sS'snack'
p571
I573
sS'dice'
p572
I574
sS'stair'
p573
I575
sS'pump'
p574
I924
sS'black'
p575
I577
sS'robe'
p576
I578
sS'pumpkin'
p577
I579
sS'bridge'
p578
I1015
sS'rhinos'
p579
I859
sS'blinks'
p580
I580
sS'hedge'
p581
I581
sS'artist'
p582
I582
sS'penguins'
p583
I583
sS'bombs'
p584
I584
sS'tent'
p585
I1388
sS'reels'
p586
I586
sS'microphones'
p587
I587
sS'pane'
p588
I588
sS'seat'
p589
I589
sS'cocktails'
p590
I590
sS'turntable'
p591
I591
sS'seal'
p592
I592
sS'dives'
p593
I593
sS'diver'
p594
I594
sS'palette'
p595
I595
sS'ways'
p596
I596
sS'ornament'
p597
I597
sS'weapons'
p598
I598
sS'outside'
p599
I599
sS'chimpanzees'
p600
I600
sS'screen'
p601
I601
sS'supermarket'
p602
I602
sS'guitar'
p603
I603
sS'jets'
p604
I604
sS'tub'
p605
I605
sS'comb'
p606
I606
sS'mane'
p607
I607
sS'wheels'
p608
I654
sS'expression'
p609
I609
sS'stretches'
p610
I610
sS'stretcher'
p611
I611
sS'color'
p612
I612
sS'armchair'
p613
I613
sS'pot'
p614
I614
sS'jeans'
p615
I615
sS'pole'
p616
I616
sS'boar'
p617
I617
sS'boat'
p618
I618
sS'sticks'
p619
I619
sS'lioness'
p620
I620
sS'stretch'
p621
I621
sS'toothpaste'
p622
I622
sS'coupe'
p623
I623
sS'helicopter'
p624
I624
sS'engine'
p625
I625
sS'padlock'
p626
I626
sS'squirrels'
p627
I627
sS'turtles'
p628
I628
sS'cash'
p629
I629
sS'trick'
p630
I630
sS'canoes'
p631
I631
sS'shops'
p632
I632
sS'slippers'
p633
I633
sS'vest'
p634
I634
sS'canoe'
p635
I635
sS'candies'
p636
I636
sS'purse'
p637
I637
sS'telephone'
p638
I638
sS'heels'
p639
I639
sS'helmet'
p640
I640
sS'paw'
p641
I641
sS'bowl'
p642
I642
sS'figurine'
p643
I643
sS'pan'
p644
I644
sS'wires'
p645
I645
sS'nest'
p646
I646
sS'foam'
p647
I647
sS'seagulls'
p648
I890
sS'weed'
p649
I649
sS'cymbal'
p650
I650
sS'fruit'
p651
I651
sS'clippers'
p652
I867
sS'statue'
p653
I906
sS'holders'
p654
I608
sS'hummingbird'
p655
I1172
sS'theater'
p656
I656
sS'walls'
p657
I657
sS'breeze'
p658
I658
sS'bottle'
p659
I659
sS'model'
p660
I660
sS'taxi'
p661
I661
sS'money'
p662
I662
sS'sights'
p663
I663
sS'sprayer'
p664
I664
sS'pirouetting'
p665
I665
sS'speed'
p666
I666
sS'instrument'
p667
I667
sS'pill'
p668
I668
sS'swim'
p669
I669
sS'fridge'
p670
I670
sS'gestures'
p671
I671
sS'chainsaw'
p672
I672
sS'bandage'
p673
I673
sS'world'
p674
I674
sS'furniture'
p675
I675
sS'barbells'
p676
I676
sS'towel'
p677
I677
sS'bracelet'
p678
I678
sS'laughing'
p679
I679
sS'claw'
p680
I680
sS'tower'
p681
I681
sS'kennel'
p682
I682
sS'auditorium'
p683
I683
sS'twelve'
p684
I684
sS'seating'
p685
I685
sS'grub'
p686
I686
sS'diving'
p687
I687
sS'pickles'
p688
I688
sS'wristband'
p689
I689
sS'tote'
p690
I690
sS'tube'
p691
I691
sS'cleanser'
p692
I692
sS'tuba'
p693
I693
sS'moon'
p694
I694
sS'cannabis'
p695
I695
sS'teardrop'
p696
I696
sS'recorder'
p697
I697
sS'knife'
p698
I698
sS'drums'
p699
I699
sS'stone'
p700
I700
sS'tease'
p701
I701
sS'jeep'
p702
I702
sS'island'
p703
I703
sS'mixer'
p704
I704
sS'gums'
p705
I705
sS'wolf'
p706
I706
sS'stand'
p707
I707
sS'ox'
p708
I708
sS'road'
p709
I709
sS'lands'
p710
I710
sS'instruments'
p711
I711
sS'garb'
p712
I712
sS'earring'
p713
I713
sS'harness'
p714
I714
sS'strip'
p715
I715
sS'buds'
p716
I1302
sS'shells'
p717
I717
sS'cats'
p718
I718
sS'lions'
p719
I719
sS'stars'
p720
I720
sS'cloths'
p721
I721
sS'bubble'
p722
I722
sS'jug'
p723
I723
sS'kittens'
p724
I724
sS'eyeliner'
p725
I725
sS'cabinet'
p726
I726
sS'mice'
p727
I727
sS'swabs'
p728
I728
sS'thumps'
p729
I729
sS'bucket'
p730
I730
sS'bow-tie'
p731
I731
sS'strawberry'
p732
I732
sS'suitcase'
p733
I733
sS'grass'
p734
I734
sS'toilet'
p735
I735
sS'gong'
p736
I736
sS'deer'
p737
I737
sS'watches'
p738
I738
sS'pickax'
p739
I739
sS'sheath'
p740
I740
sS'moves'
p741
I741
sS'jacket'
p742
I357
sS'collie'
p743
I743
sS'tyrannosaurus'
p744
I358
sS'drivers'
p745
I745
sS'swords'
p746
I746
sS'roses'
p747
I747
sS'puppy'
p748
I748
sS'outfield'
p749
I749
sS'pillows'
p750
I750
sS'symbol'
p751
I751
sS'drift'
p752
I752
sS'herbs'
p753
I753
sS'podium'
p754
I754
sS'bullets'
p755
I755
sS'torches'
p756
I757
sS'pool'
p757
I758
sS'alcohol'
p758
I759
sS'building'
p759
I760
sS'tricks'
p760
I761
sS'curve'
p761
I762
sS'husky'
p762
I1245
sS'strings'
p763
I764
sS'gown'
p764
I765
sS'spacecraft'
p765
I766
sS'disc'
p766
I767
sS'smoking'
p767
I1412
sS'talks'
p768
I26
sS'disk'
p769
I770
sS'carpet'
p770
I771
sS'apartment'
p771
I772
sS'tv'
p772
I774
sS'tail'
p773
I775
sS'woman'
p774
I776
sS'premium'
p775
I777
sS'screwdriver'
p776
I778
sS'baton'
p777
I779
sS'fall'
p778
I780
sS'bubbles'
p779
I781
sS'blankly'
p780
I782
sS'dinosaur'
p781
I783
sS'saxophone'
p782
I784
sS'mammal'
p783
I785
sS'locomotive'
p784
I786
sS'cookies'
p785
I787
sS'ten'
p786
I141
sS'tea'
p787
I789
sS'grabs'
p788
I790
sS'pass'
p789
I791
sS'ribbon'
p790
I792
sS'creatures'
p791
I793
sS'dial'
p792
I794
sS'clock'
p793
I795
sS'sun'
p794
I796
sS'skid'
p795
I797
sS'racing'
p796
I798
sS'guns'
p797
I799
sS'diapers'
p798
I800
sS'tracks'
p799
I801
sS'trunk'
p800
I802
sS'tortoise'
p801
I803
sS'miniature'
p802
I804
sS'airport'
p803
I805
sS'milkshake'
p804
I806
sS'hamster'
p805
I807
sS'pick'
p806
I808
sS'action'
p807
I809
sS'skids'
p808
I279
sS'limos'
p809
I811
sS'layer'
p810
I1418
sS'toys'
p811
I813
sS'suits'
p812
I1151
sS'dachshund'
p813
I815
sS'casket'
p814
I816
sS'donuts'
p815
I817
sS'poodle'
p816
I756
sS'raft'
p817
I819
sS'horses'
p818
I820
sS'diamond'
p819
I821
sS'door'
p820
I822
sS'flap'
p821
I823
sS'chimpanzee'
p822
I824
sS'flag'
p823
I825
sS'stethoscope'
p824
I826
sS'stick'
p825
I827
sS'coyote'
p826
I828
sS'mall'
p827
I829
sS'seagull'
p828
I830
sS'shark'
p829
I831
sS'pony'
p830
I832
sS'dragonfly'
p831
I833
sS'sunscreen'
p832
I834
sS'gallon'
p833
I835
sS'airplane'
p834
I836
sS'dress'
p835
I837
sS'hamburgers'
p836
I452
sS'sequins'
p837
I839
sS'extinguisher'
p838
I840
sS'goal'
p839
I841
sS'speedboat'
p840
I842
sS'goat'
p841
I843
sS'wigs'
p842
I844
sS'creature'
p843
I845
sS'plant'
p844
I846
sS'sandwich'
p845
I847
sS'bags'
p846
I848
sS'waves'
p847
I849
sS'backyard'
p848
I850
sS'coat'
p849
I851
sS'racetrack'
p850
I852
sS'chopsticks'
p851
I853
sS'egg'
p852
I854
sS'playing'
p853
I855
sS'pans'
p854
I856
sS'rottweiler'
p855
I569
sS'handlebars'
p856
I858
sS'stays'
p857
I500
sS'paper'
p858
I860
sS'lasers'
p859
I861
sS'clarinet'
p860
I862
sS'laces'
p861
I863
sS'sauce'
p862
I864
sS'someone'
p863
I865
sS'food'
p864
I866
sS'salamander'
p865
I652
sS'cupcake'
p866
I868
sS'snowball'
p867
I869
sS'foot'
p868
I870
sS'lettuce'
p869
I137
sS'biscuits'
p870
I872
sS'trailer'
p871
I873
sS'lantern'
p872
I874
sS'dumbbells'
p873
I875
sS'accelerator'
p874
I876
sS'house'
p875
I877
sS'fish'
p876
I878
sS'bouquets'
p877
I879
sS'loops'
p878
I880
sS'flower'
p879
I881
sS'lipstick'
p880
I882
sS'pigeon'
p881
I883
sS'dugout'
p882
I884
sS'fountain'
p883
I885
sS'hill'
p884
I886
sS'mittens'
p885
I887
sS'highway'
p886
I888
sS'smock'
p887
I889
sS'None'
p888
I1540
sS'driver'
p889
I648
sS'pug'
p890
I891
sS'pub'
p891
I892
sS'bulls'
p892
I893
sS'cookie'
p893
I894
sS'acorn'
p894
I895
sS'put'
p895
I896
sS'pup'
p896
I897
sS'guy'
p897
I382
sS'thread'
p898
I899
sS'seahorse'
p899
I900
sS'lemur'
p900
I901
sS'canister'
p901
I902
sS'daisy'
p902
I903
sS'castle'
p903
I904
sS'porpoise'
p904
I905
sS'stairwell'
p905
I653
sS'buffaloes'
p906
I907
sS'number'
p907
I908
sS'cups'
p908
I909
sS'speedometer'
p909
I910
sS'horse'
p910
I911
sS'jet'
p911
I912
sS'automobile'
p912
I913
sS'hamsters'
p913
I914
sS'collar'
p914
I558
sS'paint'
p915
I916
sS'leash'
p916
I917
sS'station'
p917
I918
sS'stallions'
p918
I919
sS'weave'
p919
I655
sS'syrup'
p920
I921
sS'banana'
p921
I922
sS'store'
p922
I923
sS'needle'
p923
I925
sS'jordan'
p924
I926
sS'rifle'
p925
I927
sS'steaks'
p926
I928
sS'stairs'
p927
I929
sS'compartment'
p928
I920
sS'recording'
p929
I930
sS'stall'
p930
I931
sS'outdoors'
p931
I932
sS'dispenser'
p932
I933
sS'shirts'
p933
I393
sS'cleaner'
p934
I934
sS'bassinet'
p935
I935
sS'chipmunk'
p936
I936
sS'juice'
p937
I937
sS'graffiti'
p938
I938
sS'wipers'
p939
I939
sS'lid'
p940
I940
sS'mountain'
p941
I941
sS'koala'
p942
I942
sS'dancing'
p943
I943
sS'spaghetti'
p944
I1173
sS'freshener'
p945
I945
sS'couch'
p946
I946
sS'lit'
p947
I947
sS'flares'
p948
I948
sS'lifts'
p949
I949
sS'sandwiches'
p950
I950
sS'nightie'
p951
I951
sS'gym'
p952
I952
sS'play'
p953
I953
sS'eggs'
p954
I954
sS'cigarette'
p955
I955
sS'darts'
p956
I956
sS'machete'
p957
I957
sS'refrigerator'
p958
I958
sS'mobile'
p959
I959
sS'cover'
p960
I960
sS'hyena'
p961
I961
sS'amphibian'
p962
I962
sS'barrel'
p963
I963
sS'tubes'
p964
I964
sS'stones'
p965
I965
sS'barbell'
p966
I966
sS'housecoat'
p967
I967
sS'crayon'
p968
I968
sS'chock'
p969
I969
sS'blender'
p970
I970
sS'indicator'
p971
I971
sS'scooter'
p972
I972
sS'foal'
p973
I716
sS'condom'
p974
I973
sS'circle'
p975
I974
sS'porcupine'
p976
I975
sS'triangle'
p977
I976
sS'dandelion'
p978
I977
sS'trees'
p979
I978
sS'ferret'
p980
I979
sS'basement'
p981
I980
sS'sill'
p982
I981
sS'motorcycles'
p983
I982
sS'sleeve'
p984
I983
sS'withe'
p985
I984
sS'tabby'
p986
I985
sS'lolly'
p987
I986
sS'gloves'
p988
I987
sS'corgi'
p989
I988
sS'river'
p990
I989
sS'bars'
p991
I990
sS'art'
p992
I991
sS'lion'
p993
I992
sS'sea'
p994
I993
sS'tender'
p995
I994
sS'close'
p996
I995
sS'outward'
p997
I996
sS'sportswear'
p998
I997
sS'barn'
p999
I998
sS'shower'
p1000
I999
sS'patties'
p1001
I1000
sS'gravestones'
p1002
I1001
sS'pictures'
p1003
I1002
sS'crosswalk'
p1004
I1003
sS'champagne'
p1005
I1004
sS'outfit'
p1006
I1005
sS'spray'
p1007
I1006
sS'zipper'
p1008
I1007
sS'prams'
p1009
I1008
sS'blazer'
p1010
I1009
sS'restaurant'
p1011
I1010
sS'eggplant'
p1012
I1011
sS'boxers'
p1013
I1012
sS'whole'
p1014
I1013
sS'mini'
p1015
I160
sS'forklift'
p1016
I1016
sS'dances'
p1017
I1017
sS'dancer'
p1018
I1018
sS'climbers'
p1019
I1019
sS'crisps'
p1020
I1020
sS'goats'
p1021
I1021
sS'belt'
p1022
I1022
sS'catwalk'
p1023
I1023
sS'dun'
p1024
I1024
sS'lizards'
p1025
I1025
sS'peppers'
p1026
I1026
sS'squirrel'
p1027
I1027
sS'racer'
p1028
I1028
sS'races'
p1029
I1029
sS'sleeves'
p1030
I1030
sS'ski'
p1031
I1452
sS'irises'
p1032
I1032
sS'crutch'
p1033
I1033
sS'rope'
p1034
I1034
sS'moth'
p1035
I1035
sS'demon'
p1036
I1036
sS'ducks'
p1037
I1037
sS'rig'
p1038
I1038
sS'rib'
p1039
I1039
sS'fedora'
p1040
I1040
sS'gangway'
p1041
I1534
sS'corridor'
p1042
I1041
sS'hallway'
p1043
I1042
sS'snail'
p1044
I1043
sS'keys'
p1045
I1044
sS'cigar'
p1046
I1045
sS'sandals'
p1047
I1046
sS'stack'
p1048
I1047
sS'beanie'
p1049
I1048
sS'person'
p1050
I1049
sS'flags'
p1051
I1050
sS'machinery'
p1052
I1051
sS'prize'
p1053
I1537
sS'eyeglasses'
p1054
I1052
sS'carport'
p1055
I1053
sS'pigeons'
p1056
I1054
sS'desk'
p1057
I1458
sS'shape'
p1058
I1056
sS'jumpsuit'
p1059
I1057
sS'tablet'
p1060
I1058
sS'cup'
p1061
I1059
sS'workers'
p1062
I1060
sS'signals'
p1063
I1061
sS'cub'
p1064
I1062
sS'bin'
p1065
I1063
sS'rodents'
p1066
I1064
sS'skateboards'
p1067
I1065
sS'manatee'
p1068
I1066
sS'game'
p1069
I1067
sS'wings'
p1070
I1068
sS'flannel'
p1071
I1069
sS'glove'
p1072
I1070
sS'banknotes'
p1073
I1071
sS'eel'
p1074
I1072
sS'walrus'
p1075
I1073
sS'sprinklers'
p1076
I1074
sS'cones'
p1077
I327
sS'sorbet'
p1078
I1076
sS'phone'
p1079
I57
sS'lips'
p1080
I1077
sS'grenades'
p1081
I1078
sS'ornaments'
p1082
I1079
sS'mirror'
p1083
I1080
sS'candle'
p1084
I1081
sS'saucer'
p1085
I1082
sS'jewelry'
p1086
I1083
sS'pet'
p1087
I1084
sS'singing'
p1088
I1199
sS'pen'
p1089
I1086
sS'thighs'
p1090
I1087
sS'run'
p1091
I1088
sS'rapping'
p1092
I1089
sS'jumps'
p1093
I1090
sS'perpendicular'
p1094
I1091
sS'step'
p1095
I1092
sS'raspberry'
p1096
I1093
sS'goods'
p1097
I1094
sS'hatchet'
p1098
I1095
sS'range'
p1099
I1096
sS'block'
p1100
I1097
sS'sneaker'
p1101
I1098
sS'frames'
p1102
I1099
sS'rolls'
p1103
I1100
sS'jockey'
p1104
I1101
sS'yo-yo'
p1105
I1102
sS'arcade'
p1106
I1103
sS'batons'
p1107
I1104
sS'sock'
p1108
I1105
sS'sneaks'
p1109
I1106
sS'suit'
p1110
I1107
sS'mountains'
p1111
I1108
sS't-shirt'
p1112
I1109
sS'boys'
p1113
I1110
sS'toucan'
p1114
I1111
sS'branch'
p1115
I1530
sS'line'
p1116
I1112
sS'penguin'
p1117
I1113
sS'skull'
p1118
I1114
sS'fries'
p1119
I1115
sS'planet'
p1120
I1116
sS'cartwheel'
p1121
I1117
sS'groove'
p1122
I1118
sS'bell'
p1123
I1446
sS'duckling'
p1124
I183
sS'geese'
p1125
I1120
sS'curb'
p1126
I1121
sS'cafe'
p1127
I1122
sS'upstage'
p1128
I1123
sS'kirk'
p1129
I1124
sS'parlor'
p1130
I1125
sS'parakeet'
p1131
I1126
sS'aprons'
p1132
I1127
sS'mayonnaise'
p1133
I1128
sS'tarp'
p1134
I1129
sS'pandas'
p1135
I1130
sS'draw'
p1136
I1131
sS'robots'
p1137
I1132
sS'lens'
p1138
I1133
sS'insect'
p1139
I1134
sS'earphones'
p1140
I1135
sS'lane'
p1141
I1136
sS'fighter'
p1142
I1137
sS'vehicles'
p1143
I1138
sS'satellite'
p1144
I272
sS'beverage'
p1145
I1139
sS'doves'
p1146
I1140
sS'parrots'
p1147
I1213
sS'berries'
p1148
I1142
sS'scroll'
p1149
I1143
sS'desserts'
p1150
I1144
sS'groceries'
p1151
I1145
sS'dumbbell'
p1152
I1146
sS'windowsill'
p1153
I1147
sS'peanut'
p1154
I1148
sS'mosque'
p1155
I1149
sS'tadpole'
p1156
I1475
sS'mower'
p1157
I814
sS'stable'
p1158
I1152
sS'fences'
p1159
I1153
sS'garden'
p1160
I1155
sS'ukulele'
p1161
I1156
sS'ladle'
p1162
I1157
sS'dessert'
p1163
I1158
sS'kitty'
p1164
I1159
sS'wave'
p1165
I1160
sS'spoon'
p1166
I1161
sS'trough'
p1167
I1162
sS'llama'
p1168
I1163
sS'forks'
p1169
I1164
sS'button'
p1170
I1165
sS'race'
p1171
I1166
sS'snails'
p1172
I1167
sS'booty'
p1173
I1168
sS'crow'
p1174
I1169
sS'boots'
p1175
I1170
sS'booth'
p1176
I1171
sS'pajamas'
p1177
I944
sS'cupcakes'
p1178
I1174
sS'plays'
p1179
I1175
sS'blobs'
p1180
I1176
sS'wallet'
p1181
I434
sS'espresso'
p1182
I1178
sS'bird'
p1183
I1179
sS'exercise'
p1184
I1180
sS'scenery'
p1185
I1181
sS'toast'
p1186
I1182
sS'kangaroo'
p1187
I1183
sS'commercial'
p1188
I1184
sS'objects'
p1189
I1185
sS'sink'
p1190
I1186
sS'pancake'
p1191
I1187
sS'ferry'
p1192
I1188
sS'shades'
p1193
I1189
sS'products'
p1194
I1190
sS'orangutan'
p1195
I1191
sS'popcorn'
p1196
I1192
sS'wig'
p1197
I1193
sS'shovel'
p1198
I1194
sS'apple'
p1199
I1195
sS'sparklers'
p1200
I1196
sS'duck'
p1201
I1197
sS'walruses'
p1202
I1198
sS'tools'
p1203
I1085
sS'gateway'
p1204
I1200
sS'ape'
p1205
I1201
sS'sketchbook'
p1206
I1202
sS'chocolates'
p1207
I1203
sS'frog'
p1208
I1204
sS'crab'
p1209
I1205
sS'vehicle'
p1210
I1206
sS'eagles'
p1211
I1207
sS'pencil'
p1212
I1208
sS'iris'
p1213
I1487
sS'musician'
p1214
I1210
sS'missile'
p1215
I1211
sS'train'
p1216
I1212
sS'armadillo'
p1217
I1141
sS'rabbit'
p1218
I1214
sS'baby'
p1219
I1215
sS'women'
p1220
I1216
sS'balls'
p1221
I1217
sS'animals'
p1222
I1218
sS'salad'
p1223
I1219
sS'tunnel'
p1224
I1220
sS'challenge'
p1225
I1221
sS'donut'
p1226
I1222
sS'drill'
p1227
I1223
sS'drops'
p1228
I1224
sS'coffin'
p1229
I1225
sS'snacks'
p1230
I1226
sS'ferrets'
p1231
I1227
sS'lock'
p1232
I1228
sS'pieces'
p1233
I1229
sS'carrot'
p1234
I1230
sS'bend'
p1235
I1231
sS'suds'
p1236
I1232
sS'bones'
p1237
I1233
sS'sunglasses'
p1238
I1234
sS'paws'
p1239
I1235
sS'skirt'
p1240
I1236
sS'lamb'
p1241
I1237
sS'sit'
p1242
I1238
sS'trumpet'
p1243
I1239
sS'bungee'
p1244
I1240
sS'six'
p1245
I1241
sS'formations'
p1246
I1242
sS'tightrope'
p1247
I1243
sS'lamp'
p1248
I1244
sS'animal'
p1249
I1246
sS'typewriter'
p1250
I1247
sS'contraption'
p1251
I1248
sS'buildings'
p1252
I1249
sS'blocks'
p1253
I1250
sS'farm'
p1254
I1251
sS'watch'
p1255
I1252
sS'masks'
p1256
I1253
sS'paintball'
p1257
I1254
sS'pigs'
p1258
I1255
sS'ties'
p1259
I1256
sS'cabbage'
p1260
I1257
sS'hawk'
p1261
I1258
sS'tomato'
p1262
I1259
sS'sculptures'
p1263
I1260
sS'light'
p1264
I1261
sS'counter'
p1265
I1262
sS'lines'
p1266
I1263
sS'robot'
p1267
I1264
sS'bakery'
p1268
I1265
sS'necklace'
p1269
I1266
sS'martini'
p1270
I1267
sS'move'
p1271
I1268
sS'spatula'
p1272
I1269
sS'costume'
p1273
I10
sS'horns'
p1274
I1271
sS'iguana'
p1275
I1272
sS'twirls'
p1276
I1273
sS'banner'
p1277
I1274
sS'broom'
p1278
I1275
sS'ships'
p1279
I1276
sS'pugs'
p1280
I1277
sS'orange'
p1281
I1278
sS'flour'
p1282
I1279
sS'material'
p1283
I1280
sS'runs'
p1284
I1281
sS'oranges'
p1285
I1282
sS'dock'
p1286
I1283
sS'snake'
p1287
I1284
sS'kiss'
p1288
I1285
sS'hands'
p1289
I1286
sS'front'
p1290
I1287
sS'jaguar'
p1291
I203
sS'cage'
p1292
I1289
sS'slide'
p1293
I1290
sS'lingerie'
p1294
I1291
sS'tray'
p1295
I1292
sS'glasses'
p1296
I1293
sS'globe'
p1297
I1294
sS'puppets'
p1298
I1295
sS'sweatshirt'
p1299
I1296
sS'hippopotamus'
p1300
I1297
sS'cocktail'
p1301
I1298
sS'armor'
p1302
I1299
sS'wick'
p1303
I1300
sS'red'
p1304
I1301
sS'umbrella'
p1305
I1303
sS'pendant'
p1306
I1304
sS'dumpster'
p1307
I1305
sS'retriever'
p1308
I1306
sS'backwards'
p1309
I1307
sS'mortar'
p1310
I1308
sS'skateboard'
p1311
I1309
sS'stride'
p1312
I1310
sS'scarf'
p1313
I1311
sS'bouquet'
p1314
I1312
sS'sack'
p1315
I1313
sS'bonnet'
p1316
I1314
sS'puppet'
p1317
I1315
sS'braces'
p1318
I1316
sS'monkey'
p1319
I1317
sS'bears'
p1320
I1318
sS'wrapper'
p1321
I1319
sS'decorations'
p1322
I1320
sS'motorcar'
p1323
I1321
sS'jellyfish'
p1324
I1322
sS'spaceship'
p1325
I1323
sS'headbands'
p1326
I1324
sS'gear'
p1327
I1325
sS'shorts'
p1328
I1326
sS'bulldog'
p1329
I1327
sS'shelf'
p1330
I1328
sS'xylophone'
p1331
I1329
sS'photograph'
p1332
I1330
sS'bed'
p1333
I1331
sS'bee'
p1334
I1332
sS'firework'
p1335
I1333
sS'candles'
p1336
I1334
sS'sculpture'
p1337
I1335
sS'platypus'
p1338
I1336
sS'carrots'
p1339
I1337
sS'tide'
p1340
I1338
sS'clove'
p1341
I274
sS'dishes'
p1342
I1340
sS'jail'
p1343
I472
sS'soap'
p1344
I1342
sS'manor'
p1345
I1343
sS'passionately'
p1346
I1344
sS'petals'
p1347
I1345
sS'eight'
p1348
I1346
sS'device'
p1349
I1347
sS'lobby'
p1350
I1430
sS'cellphone'
p1351
I1348
sS'stereo'
p1352
I1349
sS'face'
p1353
I1350
sS'pipe'
p1354
I1351
sS'painting'
p1355
I1352
sS'bedroom'
p1356
I1353
sS'chicken'
p1357
I1354
sS'taps'
p1358
I1355
sS'tire'
p1359
I1356
sS'jar'
p1360
I1357
sS'mug'
p1361
I220
sS'buttons'
p1362
I1359
sS'tape'
p1363
I1360
sS'employee'
p1364
I1361
sS'piano'
p1365
I1362
sS'photographs'
p1366
I1363
sS'cube'
p1367
I1364
sS'capsules'
p1368
I446
sS'bear'
p1369
I1366
sS'beam'
p1370
I1367
sS'cubs'
p1371
I1368
sS'beak'
p1372
I1369
sS'bronco'
p1373
I1370
sS'chips'
p1374
I1371
sS'gray'
p1375
I1372
sS'hoses'
p1376
I1373
sS'trucks'
p1377
I1374
sS'ashtray'
p1378
I1375
sS'mascara'
p1379
I1376
sS'motorcycle'
p1380
I1270
sS'appliance'
p1381
I1378
sS'frame'
p1382
I1379
sS'humans'
p1383
I1380
sS'computer'
p1384
I1381
sS'driveway'
p1385
I1382
sS'wire'
p1386
I1383
sS'closet'
p1387
I1384
sS'routine'
p1388
I1385
sS'chipmunks'
p1389
I1386
sS'pistol'
p1390
I1387
sS'pants'
p1391
I585
sS'beverages'
p1392
I1389
sS'butts'
p1393
I1390
sS'courtyard'
p1394
I1391
sS'key'
p1395
I1392
sS'mailbox'
p1396
I1393
sS'drum'
p1397
I1394
sS'ramp'
p1398
I1395
sS'drug'
p1399
I1396
sS'doorway'
p1400
I1397
sS'puff'
p1401
I1398
sS'wall'
p1402
I1399
sS'overcoat'
p1403
I1400
sS'table'
p1404
I1401
sS'sari'
p1405
I1402
sS'gondola'
p1406
I1403
sS'treat'
p1407
I1404
sS'curtain'
p1408
I1405
sS'feather'
p1409
I1406
sS'antlers'
p1410
I1407
sS'mike'
p1411
I1408
sS'airplanes'
p1412
I1409
sS'axle'
p1413
I1410
sS'bull'
p1414
I1411
sS'bulb'
p1415
I768
sS'plaid'
p1416
I1413
sS'laser'
p1417
I1414
sS'corset'
p1418
I1415
sS'runway'
p1419
I1416
sS'bathtub'
p1420
I1417
sS'stuffing'
p1421
I812
sS'squid'
p1422
I1419
sS'surface'
p1423
I1420
sS'rooster'
p1424
I1421
sS'ax'
p1425
I1422
sS'balloon'
p1426
I1423
sS'headlight'
p1427
I1424
sS'shuttle'
p1428
I1425
sS'party'
p1429
I1426
sS'pull-ups'
p1430
I1427
sS'ball'
p1431
I1428
sS'drink'
p1432
I1429
sS'broccoli'
p1433
I915
sS'tighter'
p1434
I1431
sS'gutter'
p1435
I1432
sS'surfboard'
p1436
I1433
sS'shotgun'
p1437
I1434
sS'weapon'
p1438
I1435
sS'drone'
p1439
I1436
sS'twirl'
p1440
I1437
sS'bandanna'
p1441
I1438
sS'45'
p1442
I1528
sS'rocket'
p1443
I1440
sS'camel'
p1444
I1441
sS'skill'
p1445
I1442
sS'flashlight'
p1446
I1443
sS'console'
p1447
I1444
sS'panther'
p1448
I1445
sS'guts'
p1449
I1014
sS'sky'
p1450
I1447
sS'lake'
p1451
I1448
sS'bench'
p1452
I1449
sS'morgue'
p1453
I1450
sS'jars'
p1454
I1451
sS'balloons'
p1455
I1031
sS'knob'
p1456
I1453
sS'ledge'
p1457
I1454
sS'budgie'
p1458
I1455
sS'dryer'
p1459
I1456
sS'five'
p1460
I1457
sS'raincoats'
p1461
I1055
sS'propeller'
p1462
I1459
sS'pier'
p1463
I1460
sS'flamingo'
p1464
I1461
sS'chairs'
p1465
I1462
sS'sofa'
p1466
I1463
sS'candy'
p1467
I1464
sS'garage'
p1468
I1465
sS'chick'
p1469
I1466
sS'heel'
p1470
I1467
sS'shed'
p1471
I1468
sS'footage'
p1472
I1469
sS'library'
p1473
I1470
sS'hair'
p1474
I1471
sS'home'
p1475
I1472
sS'leaf'
p1476
I1473
sS'kettle'
p1477
I1474
sS'floss'
p1478
I1150
sS'cradle'
p1479
I1476
sS'saucepan'
p1480
I1477
sS'earrings'
p1481
I1478
sS'kangaroos'
p1482
I1479
sS'leader'
p1483
I1480
sS'stairway'
p1484
I1481
sS'pepper'
p1485
I1482
sS'hose'
p1486
I1483
sS'whiskers'
p1487
I1484
sS'pasta'
p1488
I1485
sS'throne'
p1489
I1486
sS'pike'
p1490
I1209
sS'boards'
p1491
I1488
sS'biscuit'
p1492
I1489
sS'nightclub'
p1493
I1490
sS'seeds'
p1494
I1491
sS'rug'
p1495
I1492
sS'puppies'
p1496
I1493
sS'owl'
p1497
I1494
sS'bugle'
p1498
I1495
sS'socks'
p1499
I1496
sS'headphone'
p1500
I1497
sS'guard'
p1501
I1498
sS'ketchup'
p1502
I1499
sS'knuckles'
p1503
I1500
sS'gerbil'
p1504
I1501
sS'vegetables'
p1505
I1502
sS'drumstick'
p1506
I1503
sS'dolphins'
p1507
I1504
sS'cricket'
p1508
I1505
sS'buy'
p1509
I1506
sS'capsule'
p1510
I1507
sS'bus'
p1511
I1508
sS'sweatband'
p1512
I1509
sS'fountains'
p1513
I1510
sS'strawberries'
p1514
I1511
sS'bun'
p1515
I1512
sS'bookshelf'
p1516
I1513
sS'bug'
p1517
I1514
sS'carriage'
p1518
I1515
sS'cello'
p1519
I1516
sS'monument'
p1520
I1517
sS'cake'
p1521
I1518
sS'piece'
p1522
I1519
sS'rabbits'
p1523
I1520
sS'pin'
p1524
I1521
sS'mask'
p1525
I1522
sS'pie'
p1526
I1523
sS'pig'
p1527
I1524
sS'pix'
p1528
I1525
sS'pit'
p1529
I1526
sS'balcony'
p1530
I1527
sS'guitarist'
p1531
I1439
sS'boot'
p1532
I1529
sS'meteor'
p1533
I354
sS'dresses'
p1534
I1531
sS'frisbee'
p1535
I1532
sS'star'
p1536
I1533
sS'peeks'
p1537
I763
sS'candyfloss'
p1538
I1535
sS'veil'
p1539
I1536
sS'cliff'
p1540
I773
sS'tomcat'
p1541
I1538
sS'laundromat'
p1542
I1539
s.