(dp1
Vwater tank
p2
I646
sVcoach
p3
I186
sVdance
p4
I27
sVchild
p5
I667
sVyellow
p6
I11
sVpick up
p7
I632
sVhammer throw
p8
I897
sVskate
p9
I227
sVbasketball box
p10
I360
sVice
p11
I478
sVskiing
p12
I54
sVchair
p13
I73
sVcarpet
p14
I245
sVtake exercise
p15
I280
sVtake off coat
p16
I854
sVballet
p17
I426
sVbaseball
p18
I938
sVanimal
p19
I979
sVsnow land
p20
I157
sVspectator seats
p21
I164
sVclimb stairs
p22
I677
sVslipping
p23
I782
sVtrousers
p24
I25
sVsmile
p25
I199
sVshaving
p26
I252
sVbrown
p27
I16
sVwoman
p28
I392
sVplay with sand
p29
I493
sVwave hand
p30
I783
sVfootball field
p31
I518
sVtent
p32
I768
sVglass door
p33
I714
sVwave
p34
I222
sVfall
p35
I136
sVcook
p36
I134
sVdecorating
p37
I962
sVguarantee safety
p38
I846
sVstand straight
p39
I896
sVwipe
p40
I614
sVwashing
p41
I262
sVstimulus
p42
I657
sVclear leaves
p43
I949
sVleave
p44
I375
sVsand
p45
I137
sVfilling
p46
I804
sVbrush wall
p47
I301
sVwine cabinet
p48
I835
sVsleep
p49
I781
sVhigh five
p50
I945
sVrunway
p51
I115
sVvacuum cleaner
p52
I732
sVclothes
p53
I648
sVshave
p54
I306
sVprevent
p55
I576
sVcomb ones hair
p56
I327
sVfence
p57
I246
sVsit down
p58
I393
sVpersonality
p59
I813
sVrailing
p60
I553
sVwrestling
p61
I265
sVprepare for posture
p62
I842
sVboots
p63
I349
sVjump
p64
I75
sVstreet
p65
I785
sVhit ball
p66
I511
sVmake up
p67
I205
sVtakeoff
p68
I678
sVgatekeepers
p69
I747
sVhalf squat
p70
I976
sVblue
p71
I9
sVrope
p72
I293
sVclock
p73
I716
sVplay magic cube
p74
I376
sVsunny day
p75
I81
sVstool
p76
I717
sVpaddle
p77
I534
sVtight trousers
p78
I805
sVeating
p79
I950
sVslackline
p80
I362
sVnet
p81
I786
sVtrot
p82
I696
sVexercise
p83
I119
sVroller skating
p84
I328
sVtrampoline
p85
I573
sVdrum kit
p86
I485
sVreporter
p87
I649
sVpumpkin
p88
I589
sVwebbed feet
p89
I937
sVlife jacket
p90
I670
sVbullring
p91
I583
sVwater
p92
I111
sVshave dog
p93
I787
sVcylindrical
p94
I508
sVstudio
p95
I463
sVnon slip
p96
I427
sVleft hand
p97
I42
sVsing
p98
I350
sVsafer
p99
I408
sVstandard
p100
I703
sVcut nail
p101
I287
sVpull rope
p102
I351
sVboy
p103
I228
sVbalance
p104
I257
sVtire
p105
I996
sVhold barbell
p106
I486
sVpractice boxing
p107
I674
sVcommonly
p108
I17
sVbow
p109
I177
sVsharpening
p110
I239
sVbrush car
p111
I969
sVsingle cauda
p112
I914
sVbike repair
p113
I746
sVcowboy hat
p114
I900
sVbunker
p115
I236
sVdrink beer
p116
I537
sVbrush shoes
p117
I240
sVhead
p118
I694
sVpillow
p119
I839
sVgolden
p120
I19
sVshovel
p121
I352
sVhair belt
p122
I919
sVfamily
p123
I218
sVdanger
p124
I49
sVrun up
p125
I55
sVclapping
p126
I288
sVset cow
p127
I435
sVwoolen hat
p128
I788
sVpommel horse
p129
I509
sVvideo end
p130
I904
sVlicensing
p131
I487
sVmarket
p132
I682
sVusa
p133
I402
sVcanoe
p134
I704
sVsit up
p135
I515
sVincrease inertia
p136
I477
sVflat
p137
I947
sVmake food
p138
I605
sVeardrop
p139
I764
sVwipe face
p140
I901
sVexpress happiness
p141
I602
sVcamera
p142
I973
sVmusic
p143
I554
sVsomersault
p144
I578
sVmake cake
p145
I266
sVrock climbing
p146
I363
sVstage
p147
I122
sVchipping potatoes
p148
I603
sVhockey
p149
I433
sVclimbing ladder
p150
I902
sVbushes
p151
I920
sVdoor
p152
I93
sVclimbing wall
p153
I957
sVrelax
p154
I148
sVtake part
p155
I749
sVwater tap
p156
I333
sVright eye
p157
I958
sVprotect eye
p158
I313
sVglass
p159
I185
sVflag
p160
I510
sVtrain
p161
I267
sVstick
p162
I718
sVwater connection
p163
I974
sVriding
p164
I129
sVlay down
p165
I975
sVpiano
p166
I209
sVpot
p167
I701
sVshoot
p168
I364
sVautumn
p169
I604
sVtrack and field ground
p170
I825
sVbartender
p171
I416
sVroom
p172
I124
sVcar
p173
I204
sVride
p174
I450
sVcap
p175
I841
sVhand sink
p176
I438
sVroof
p177
I165
sVcat
p178
I307
sVpool table
p179
I719
sVsmear foam
p180
I966
sVship turned over
p181
I656
sVrectangle
p182
I98
sVinvigorate health
p183
I692
sVplay hockey
p184
I281
sVmale
p185
I3
sVplay music
p186
I386
sVbeautiful
p187
I230
sVsandbag
p188
I615
sVearphone
p189
I843
sVchallenging
p190
I905
sVpelvic
p191
I977
sVsunscreen
p192
I512
sVhigh
p193
I52
sVwashing machine
p194
I601
sVcarvings pumpkin
p195
I791
sVear studs
p196
I541
sVbend
p197
I451
sVlie down
p198
I377
sVmake hairstyle
p199
I452
sVaccumulating force
p200
I616
sVtriangle
p201
I617
sVsound
p202
I895
sVdress
p203
I439
sVpink
p204
I56
sVwalk dog
p205
I555
sVplay slide
p206
I417
sVcourt
p207
I69
sVgoal
p208
I101
sVsit
p209
I618
sVsailboat
p210
I579
sVspeedboat
p211
I513
sVboxing
p212
I318
sVcleaning tank
p213
I845
sVplay volleyball
p214
I172
sV1
I2
sVear piercing
p215
I794
sVlamp
p216
I296
sVtie hair
p217
I750
sVfemale sex
p218
I40
sVinterview
p219
I330
sVbeach
p220
I282
sVshow your hand
p221
I985
sVcircular
p222
I63
sVcupboard
p223
I621
sVbeauty
p224
I89
sVhelmet
p225
I130
sVwatch
p226
I86
sVladder
p227
I277
sVwallpaper
p228
I195
sVtool
p229
I428
sVknitted scarf
p230
I795
sVpaint bucket
p231
I653
sVlighting
p232
I906
sVmake cookie
p233
I721
sVend
p234
I793
sVwinter
p235
I125
sVclassroom
p236
I545
sVtumbling
p237
I547
sVkeep clean
p238
I317
sVsurfing
p239
I76
sVice curling
p240
I907
sVwearing mask
p241
I908
sVshave legs
p242
I580
sVwine dressing
p243
I247
sVexhibition
p244
I612
sVvolleyball
p245
I395
sVmake preparatory action
p246
I706
sVgreen
p247
I22
sVblock
p248
I447
sVwear lenses
p249
I971
sVnecklace
p250
I160
sVthrowing darts
p251
I514
sVbungee
p252
I752
sVtalk
p253
I489
sVwash face
p254
I495
sVturn magic cube
p255
I848
sVshoes
p256
I490
sVmake preparation
p257
I981
sVhaircut
p258
I187
sVfloor tile
p259
I506
sVpaper
p260
I516
sVwatch game
p261
I697
sVmotorcycle
p262
I619
sVoven
p263
I557
sVcold
p264
I685
sVbraid
p265
I581
sVdisplacement pressure
p266
I849
sVleft foot
p267
I982
sVmother and son
p268
I453
sVcurly
p269
I109
sVaccordion
p270
I626
sVrepair roof
p271
I396
sVinteresting
p272
I850
sVswimming pool
p273
I131
sVwindow
p274
I105
sVsquatting
p275
I353
sVball net
p276
I355
sVorange
p277
I59
sVwarm up
p278
I491
sVdiscus throwing
p279
I535
sVcarton
p280
I874
sVpedal puller
p281
I754
sVwear life jacket
p282
I956
sVice block
p283
I755
sVcolleague
p284
I231
sVvehicle
p285
I114
sVkeep warm
p286
I424
sVkindling wood
p287
I297
sVshovel snow
p288
I263
sVnod
p289
I634
sVcontrol direction
p290
I686
sVsafe
p291
I211
sVdoll
p292
I597
sVintroduce
p293
I687
sVmake pastries
p294
I910
sVdancing partner
p295
I337
sVcutting
p296
I560
sVjump up
p297
I189
sVmanicure
p298
I802
sVplay baseball
p299
I365
sVfoot
p300
I911
sVlift foot
p301
I803
sVwrist wrestling
p302
I334
sVsilver
p303
I212
sVmake sandwich
p304
I466
sVeasily
p305
I62
sVmartial arts
p306
I465
sVkayaking
p307
I338
sVrefresh
p308
I725
sVswimsuit
p309
I440
sVshort hair
p310
I34
sVopen arms
p311
I715
sVslide
p312
I169
sVpractice martial arts
p313
I851
sVjump down
p314
I903
sVman
p315
I429
sVbowling
p316
I241
sVdifficult
p317
I31
sVbiscuits
p318
I913
sVsnow removal
p319
I441
sVglasses
p320
I61
sVwheel
p321
I822
sVsquare
p322
I112
sVshower room
p323
I620
sVpick up ball
p324
I407
sVring finger
p325
I884
sVget o pro
p326
I757
sVhouse
p327
I60
sVfish
p328
I915
sVhard
p329
I443
sVwrist guard
p330
I339
sVfor safety
p331
I758
sVball
p332
I773
sVjuggling
p333
I890
sVscissors
p334
I467
sVgirl
p335
I582
sVenclosure
p336
I149
sVcanada
p337
I852
sVflower
p338
I444
sVnetwork
p339
I253
sVentertainment
p340
I320
sVeat something
p341
I980
sVcomb hair
p342
I223
sVtake interview
p343
I367
sVplay curling
p344
I866
sVprepare food
p345
I517
sVhealth
p346
I445
sVplayground
p347
I74
sV7
I127
sVhigh jump
p348
I166
sVplay tai chi
p349
I446
sVbicycle race
p350
I723
sVred
p351
I10
sVhip hop
p352
I815
sVwash hair
p353
I853
sVbald
p354
I918
sVdrifting
p355
I727
sVbathing animals
p356
I688
sVwhite man
p357
I728
sVtable tennis
p358
I397
sVparking lot
p359
I584
sVshaving cream
p360
I543
sVdifficulty
p361
I29
sVright hand
p362
I45
sVelectric welding
p363
I607
sVhoodie
p364
I278
sVpursuit of stimulation
p365
I690
sVcompanion
p366
I507
sVplay bumper car
p367
I289
sVsalute
p368
I917
sVinverted cleaning agent
p369
I691
sVtraining
p370
I378
sVbackwards
p371
I986
sVyard
p372
I321
sVathletic wear
p373
I651
sVpotted plant
p374
I739
sVpowerful
p375
I987
sVmotion
p376
I214
sVsweeping leaves
p377
I519
sVswing
p378
I178
sVdown by sally gardens
p379
I622
sVcurly hair
p380
I94
sVstimulate
p381
I410
sVscarf
p382
I411
sVstripe
p383
I724
sVcheese
p384
I797
sVwindow curtains
p385
I379
sVshoe rack
p386
I837
sVprevent falling
p387
I760
sVshoeshine oil
p388
I921
sVsafety
p389
I806
sVslipper
p390
I647
sVdelicious
p391
I808
sVclimbing
p392
I707
sVbicycle
p393
I159
sVring
p394
I79
sVweightlifter
p395
I881
sVincrease friction
p396
I335
sVavoid injury
p397
I726
sVrazor
p398
I520
sVhorse
p399
I118
sVtoy
p400
I418
sVdishwashing
p401
I623
sVclimb up stairs
p402
I807
sVintroduction
p403
I99
sVautomobile
p404
I102
sVmanicure for cat
p405
I809
sVplastic
p406
I494
sVwatch tv
p407
I922
sV2
I6
sVmaster
p408
I659
sVbrush ones teeth
p409
I585
sVcement floor
p410
I855
sVwhite
p411
I7
sVlong hair
p412
I78
sVkeep health
p413
I544
sVfriend
p414
I20
sVbeard
p415
I454
sVprotect face
p416
I924
sVclean desk
p417
I683
sVceiling
p418
I558
sVplay sand
p419
I722
sVshelf
p420
I322
sVgym
p421
I39
sVsuit
p422
I741
sVserve
p423
I173
sVprojectile electronic organ
p424
I856
sVice surface
p425
I761
sVbroadcast
p426
I586
sVslider
p427
I268
sVtrailing ground
p428
I215
sVshort
p429
I13
sVweightlifting
p430
I107
sVrain
p431
I823
sS'UNK'
p432
I0
sVstairs
p433
I314
sV11
p434
I561
sV10
p435
I562
sVphotograph
p436
I323
sVtarget
p437
I255
sVblack race
p438
I664
sVsplit
p439
I801
sVride motorcycle
p440
I308
sVtree
p441
I28
sVboard
p442
I202
sVbed
p443
I208
sVpreparation
p444
I200
sVhandstand
p445
I999
sVstore
p446
I923
sVcatch ball
p447
I315
sVdodge ball
p448
I878
sVhappy
p449
I108
sVdisplay results
p450
I756
sVmake salad
p451
I660
sVfor sake of beauty
p452
I432
sVcleaner
p453
I521
sVopen machine
p454
I953
sVpole vault
p455
I269
sVplay football on table
p456
I650
sVcattle
p457
I419
sVice hockey
p458
I481
sVlemon juice
p459
I899
sVsax
p460
I587
sVgreet
p461
I796
sVprotective hand
p462
I929
sVaudiences stand
p463
I625
sVmountain
p464
I190
sVmicrophone
p465
I151
sVsquat
p466
I175
sVplay bungee jumping
p467
I858
sVsweep floor
p468
I847
sVconvenient
p469
I368
sVsnow
p470
I224
sVstable
p471
I406
sVsteering wheel
p472
I926
sVwash hands
p473
I161
sVintroduction of products
p474
I468
sVtire changing
p475
I469
sVblow hair
p476
I711
sVperformance
p477
I380
sVplay accordion
p478
I254
sVcut up vegetables
p479
I990
sVplay
p480
I145
sVhotel
p481
I925
sVwrists
p482
I661
sVheadset
p483
I484
sVtrack
p484
I242
sVpark
p485
I206
sVsmall dog
p486
I991
sVflute
p487
I248
sVbasket
p488
I684
sVcourtesy
p489
I479
sVfall down
p490
I324
sVbumper car
p491
I340
sVdarts
p492
I398
sVfitness equipment
p493
I270
sVball table
p494
I689
sVprevent injury
p495
I608
sVsandy beach
p496
I298
sVrefrigerator
p497
I290
sVpeaked cap
p498
I128
sVarchery
p499
I249
sVlawn
p500
I44
sVpaving floor
p501
I559
sVmetal
p502
I470
sVdog
p503
I90
sVpipe
p504
I992
sVwash ones face
p505
I832
sVpackage
p506
I882
sVtable tennis table
p507
I993
sVwipe hands
p508
I662
sVclean
p509
I84
sVaxe
p510
I860
sVgrassland
p511
I41
sVaccompaniment
p512
I762
sVpainting
p513
I325
sVlying
p514
I733
sVraise hand
p515
I188
sVwalking
p516
I695
sVshot
p517
I861
sVopen faucet
p518
I763
sVjilt rope
p519
I936
sVindoor
p520
I30
sVscoreboard
p521
I862
sVbarbell
p522
I219
sVmake lanterns
p523
I994
sVbedroom
p524
I995
sVbodybuilding
p525
I100
sVleg
p526
I967
sVground
p527
I88
sVfitness coach
p528
I640
sVplay basketball
p529
I302
sVline up
p530
I577
sVreduce friction
p531
I291
sVplaymate
p532
I964
sVexplain
p533
I146
sVfirewood
p534
I341
sVto catch ball
p535
I681
sVhand ring
p536
I595
sVflushing
p537
I759
sVreach out
p538
I933
sVdo test
p539
I863
sVwood
p540
I65
sVblack
p541
I4
sVbalance beam
p542
I271
sVpruning trees
p543
I997
sVblow dry hair
p544
I812
sV8
I220
sVcircle
p545
I121
sVworktop
p546
I354
sVride camel
p547
I303
sVwipe glass
p548
I292
sVnail polish
p549
I182
sVplate
p550
I540
sVc
I909
sVmove
p551
I753
sVsunglasses
p552
I123
sVcolorful
p553
I663
sVblender
p554
I932
sVrock
p555
I777
sVsunny
p556
I77
sVtelevision
p557
I225
sVplay tennis
p558
I158
sVdiscus throw
p559
I304
sVrest
p560
I167
sVcushion
p561
I814
sVcelebrate
p562
I309
sVsecondary
p563
I35
sVblowing harmonica
p564
I798
sVgray
p565
I26
sVwindow shades
p566
I836
sVbar
p567
I369
sVhula hoop
p568
I342
sVh
I998
sVrowing
p569
I132
sV9
I655
sVbag
p570
I563
sVshot put
p571
I233
sVcommon
p572
I72
sVput on shoes
p573
I765
sVriver
p574
I138
sVnumber card
p575
I331
sVblack man
p576
I729
sVfarther
p577
I569
sVplay billiards
p578
I412
sVpacking box
p579
I698
sVsmooth
p580
I551
sVt shirt
p581
I213
sVnotebook computer
p582
I766
sVpads
p583
I83
sVcomputer
p584
I234
sVsea
p585
I66
sVskateboarding
p586
I183
sVdrink water
p587
I370
sVwater polo
p588
I299
sVhammer
p589
I564
sVdiver
p590
I867
sVrecording
p591
I927
sVtile
p592
I488
sVlift axe
p593
I934
sVclosestool
p594
I935
sVsail
p595
I471
sVeat ice cream
p596
I413
sVplay dodge ball
p597
I767
sVsuperb
p598
I326
sV3
I15
sVplay sailboat
p599
I928
sVplunge into water
p600
I868
sVchopping firewood
p601
I869
sVoil reverse
p602
I968
sVcylinder
p603
I819
sVdirty
p604
I599
sViron clothes
p605
I279
sVknife stone
p606
I679
sVexpress excitement
p607
I420
sVdo food
p608
I624
sVaudience cheered
p609
I699
sVscreen
p610
I283
sVhandshake
p611
I570
sVnursing bicycle
p612
I870
sVguitar
p613
I381
sVplay guitar
p614
I152
sVdance classroom
p615
I592
sVplay game
p616
I48
sVlong jump
p617
I181
sVkitchen
p618
I95
sVthrow spear
p619
I536
sVbeat ball
p620
I769
sVfitness ball
p621
I829
sVdrum
p622
I43
sVsanitation
p623
I631
sVrestaurant
p624
I609
sVrope skipping
p625
I232
sVparallel bar
p626
I272
sVpreparatory action
p627
I951
sVpush disc game
p628
I871
sVbrush paint
p629
I316
sVdecorating tree
p630
I652
sVhand lotion
p631
I591
sVchina
p632
I665
sVbroom
p633
I627
sVput in oven
p634
I972
sVplay instrument
p635
I421
sVpose
p636
I817
sVwall
p637
I14
sVsky
p638
I939
sVdenim
p639
I251
sVjeans
p640
I57
sVwalk
p641
I162
sVdipping pigment
p642
I628
sVpole
p643
I702
sVbadminton
p644
I940
sVlaugh
p645
I629
sVpolo
p646
I258
sVtable
p647
I12
sVprotect hand
p648
I731
sVprotect knee
p649
I734
sVspeak
p650
I237
sVpractice
p651
I542
sVcar wash
p652
I256
sVteammate
p653
I80
sVlattice
p654
I458
sVtoothpaste
p655
I434
sVnatatorium
p656
I343
sVblower
p657
I549
sVbeer
p658
I566
sVblack and white
p659
I546
sVstadium
p660
I332
sVdipping nail polish
p661
I941
sVcurtain
p662
I196
sVbasin
p663
I666
sVlovely
p664
I898
sV4
I23
sVmake fruit juice
p665
I770
sVplay table tennis
p666
I216
sVreferee
p667
I68
sVpommeled horse
p668
I238
sVspit
p669
I818
sVfire
p670
I399
sVsquash
p671
I135
sVwear sunscreen
p672
I989
sVcroquet
p673
I800
sVcrew cut
p674
I748
sVshuttlecock
p675
I455
sVdecorating christmas tree
p676
I400
sVhobby
p677
I565
sVsmoking
p678
I85
sVcut paper
p679
I912
sVlight head
p680
I668
sVironing board
p681
I431
sVprotection
p682
I816
sVriver water
p683
I344
sVski
p684
I358
sVstraight
p685
I191
sVgrab ball
p686
I942
sVstraight line
p687
I669
sVsit up and sit up
p688
I496
sVaim
p689
I201
sVphysical exercise
p690
I141
sVpaly game
p691
I383
sVignition
p692
I384
sVwrist watch
p693
I414
sVbathtub
p694
I197
sVplay harmonica
p695
I472
sVwelding
p696
I329
sVstart game
p697
I422
sVvest
p698
I394
sVpunches
p699
I875
sVviolin
p700
I792
sVcanoeing
p701
I820
sVapron
p702
I430
sVmake drink
p703
I593
sVeradicator
p704
I567
sVplayer
p705
I821
sVgood
p706
I606
sVembrace
p707
I385
sVlong sleeves
p708
I139
sVpartner
p709
I142
sVplay sax
p710
I594
sVdrive car
p711
I356
sVaudience applauded
p712
I771
sVwash clothes
p713
I294
sVhair drier
p714
I556
sVtattoo
p715
I170
sVshirt
p716
I284
sVplay ladder
p717
I735
sVperform
p718
I174
sVeasy to understand
p719
I150
sVbowl
p720
I876
sVs
I700
sVspeech
p721
I155
sVmagnesia powder
p722
I371
sVflat belt
p723
I654
sVscavenging leaves
p724
I523
sVthree step jump
p725
I877
sVthrow hammer
p726
I456
sVhigher
p727
I192
sVbar counter
p728
I772
sVbathe dog
p729
I345
sVlie
p730
I610
sVskilled
p731
I943
sVleather shoes
p732
I305
sVdrink
p733
I153
sVcement
p734
I524
sVweed
p735
I180
sVlay cement
p736
I635
sVrunning
p737
I106
sVcleaning
p738
I250
sVput in water
p739
I944
sVfall into water
p740
I636
sVsandals
p741
I611
sVclimb
p742
I736
sVsurf board
p743
I273
sVmother and daughter
p744
I930
sVblow flute
p745
I826
sVlower
p746
I168
sVnoodle
p747
I810
sVsplint
p748
I983
sVfloor
p749
I226
sVcheer
p750
I193
sVpersonnel
p751
I713
sVspray paint
p752
I319
sVgo fishing
p753
I436
sVleft
p754
I50
sVsummer
p755
I70
sVoutdoor
p756
I37
sVcamel
p757
I274
sVphoto
p758
I473
sVnail clipper
p759
I708
sVplay violin
p760
I207
sVmake pumpkin lanterns
p761
I637
sVgoggles
p762
I568
sVfishing
p763
I300
sVyes
p764
I0
sVrake
p765
I492
sVsmearing
p766
I680
sVequipment
p767
I588
sVbrush teeth
p768
I457
sVstainless steel
p769
I525
sVdrive
p770
I859
sVhelp
p771
I571
sVlake
p772
I357
sVday
p773
I18
sVsimple
p774
I8
sVdrawing line
p775
I844
sVprotect head
p776
I64
sVeasy
p777
I143
sVturn around
p778
I310
sVplay ball
p779
I47
sVhat
p780
I91
sVexcited
p781
I361
sVmatch
p782
I36
sVapplauded
p783
I738
sVmop
p784
I709
sVincrease speed
p785
I865
sVsumo
p786
I497
sVdance hip hop
p787
I459
sVcommentary
p788
I522
sVgrab rope
p789
I970
sVasymmetrical bars
p790
I387
sVrotate
p791
I140
sVtowel
p792
I311
sVclap hands
p793
I401
sVsofa
p794
I116
sVhit higher
p795
I774
sVseaside
p796
I474
sVbracelet
p797
I217
sVprotective net
p798
I965
sVglove
p799
I103
sVrestroom
p800
I590
sVfly kite
p801
I221
sVcook dish
p802
I475
sVaudience
p803
I32
sVstraight hair
p804
I126
sVsteps
p805
I671
sVtake out
p806
I840
sVgroup photo
p807
I946
sVnight
p808
I133
sVleatherwear
p809
I638
sVsecurity
p810
I33
sVgargle
p811
I346
sVright
p812
I96
sVcrowd
p813
I811
sVpeople
p814
I176
sVback
p815
I527
sVbounce
p816
I528
sVride on bicycle
p817
I460
sVopen mouth
p818
I744
sVgymnastics
p819
I210
sVbungee jumping
p820
I312
sVjavelin throw
p821
I737
sVmirror
p822
I38
sVdiving
p823
I51
sVadvertise
p824
I476
sVstir
p825
I720
sVpush disc
p826
I872
sVgym shoes
p827
I120
sVwristband
p828
I961
sVpurple
p829
I104
sVavoid
p830
I776
sVmore difficult
p831
I171
sVbasketball gym
p832
I526
sVdaytime
p833
I53
sVshoelace
p834
I784
sVmachine
p835
I464
sVseabed
p836
I948
sVbullfight
p837
I203
sVtreadmill
p838
I372
sVsunshade
p839
I879
sVknife
p840
I963
sVplay football
p841
I92
sVdishware
p842
I799
sVjump farther
p843
I529
sVrun
p844
I117
sVpeel
p845
I423
sVblow ones hair
p846
I572
sVknit sweater
p847
I347
sVfitness
p848
I366
sVcleaning leaves
p849
I548
sVplay musical instrument
p850
I404
sVexplain action
p851
I575
sVbroadcast news
p852
I295
sVhost
p853
I359
sVpick ball
p854
I873
sVpedaling
p855
I639
sVblow sax
p856
I275
sVcrack on speed
p857
I259
sVsimpler
p858
I276
sVtrophy
p859
I827
sVstone
p860
I598
sVtake shower
p861
I538
sVcowboy
p862
I373
sVstand
p863
I144
sVpeel potato
p864
I931
sVtug of war
p865
I194
sVroad
p866
I67
sVswimming
p867
I147
sVrepair
p868
I954
sVcurling
p869
I243
sVgo round
p870
I955
sVtie cow
p871
I789
sVwear shoe
p872
I336
sVweave hair
p873
I710
sVbasketball stands
p874
I740
sVearring
p875
I260
sVsafety hat
p876
I442
sVbrush
p877
I163
sVfemale
p878
I5
sVcarving
p879
I672
sVtraining ground
p880
I883
sVbasketball court
p881
I530
sVellipse
p882
I531
sVcut fruit
p883
I778
sVsnowfield
p884
I988
sVprepare
p885
I885
sVwait for
p886
I886
sVtennis
p887
I425
sVlong
p888
I46
sVfight
p889
I828
sVstart
p890
I285
sVlow
p891
I179
sVcut grass
p892
I461
sVtable football
p893
I480
sVspringboard
p894
I887
sVfallen leaves
p895
I552
sVcloth
p896
I742
sVopponent
p897
I21
sVfork
p898
I693
sVexplain detail
p899
I244
sVmedium
p900
I24
sVbald head
p901
I642
sVposter
p902
I532
sVski field
p903
I403
sV6
I87
sVoil
p904
I916
sVcabinet
p905
I113
sVsmoke ring
p906
I658
sVtennis court
p907
I743
sVcompetition
p908
I880
sVclear weather
p909
I888
sVstand up
p910
I229
sVbookshelf
p911
I779
sVshisha
p912
I673
sVcooking bench
p913
I388
sVprotect yourself
p914
I712
sVeat
p915
I550
sVspeed up
p916
I498
sVchristmas hat
p917
I889
sVdangerous
p918
I82
sVbucket
p919
I499
sVchristmas tree
p920
I286
sVclean mouth
p921
I574
sVhand
p922
I824
sVsports equipment
p923
I643
sVwear gloves
p924
I382
sVgrass
p925
I261
sVmove forward
p926
I864
sVdisplay
p927
I184
sVtoilet
p928
I389
sVreduce center of gravity
p929
I500
sVassemble bicycle
p930
I501
sVforest
p931
I978
sVchopping wood
p932
I830
sVsponge pad
p933
I348
sVyacht
p934
I600
sVannular
p935
I952
sVwater spray
p936
I745
sVmobile phone
p937
I984
sVevening
p938
I705
sVcustomer
p939
I539
sVchat
p940
I264
sVhome
p941
I110
sVship
p942
I675
sVshooting
p943
I633
sVwind whistle
p944
I891
sVjump higher
p945
I462
sVwear contact lenses
p946
I676
sVtaekwondo
p947
I644
sVclean up
p948
I596
sVmake biscuits
p949
I775
sVlemon
p950
I533
sVno
p951
I1
sVshake body
p952
I831
sVfencing
p953
I235
sVgoalkeeper
p954
I409
sVrubber
p955
I502
sVfield
p956
I503
sV5
I58
sVgambling
p957
I504
sVtrash
p958
I892
sVcricket
p959
I641
sVbrushing
p960
I448
sVdraw
p961
I405
sVpass ball
p962
I505
sVthrow ball
p963
I198
sVfootball
p964
I482
sVdrift
p965
I156
sVnet bar
p966
I630
sVskirt
p967
I751
sVberet
p968
I730
sVbelly dance
p969
I483
sVget ready
p970
I374
sVcompetitor
p971
I959
sVspouse
p972
I390
sVdesert
p973
I960
sVpool
p974
I97
sVplay piano
p975
I154
sVpick up cup
p976
I833
sVland
p977
I613
sVstart of the game
p978
I838
sVapplause
p979
I415
sVmarathon
p980
I857
sVphone
p981
I790
sVsafety rope
p982
I893
sVshoe polish
p983
I449
sVmask
p984
I437
sVjump house
p985
I834
sVshort sleeve
p986
I71
sVshake hand
p987
I391
sVdiving platform
p988
I894
sVbrother and sister
p989
I780
sVturn somersault
p990
I645
s.