(lp1
(dp2
Vraining
p3
I450
sVseated
p4
I2788
sVbagpipe
p5
I2111
sVdivers
p6
I1840
sVhats
p7
I54
sVknelt
p8
I1850
sVyellow
p9
I40
sVfour
p10
I1000
sVhanging
p11
I1392
sVassembled
p12
I2592
sVwhose
p13
I994
sVfeeding
p14
I2696
sVswab
p15
I2809
sVswam
p16
I3026
sVfingernails
p17
I636
sVbike
p18
I692
sVtrousers
p19
I14
sVteaching
p20
I3443
sVassembles
p21
I1028
sVshaving
p22
I204
sVdigit
p23
I3332
sVwreath
p24
I2044
sVrisk
p25
I2176
sVblanket
p26
I1988
sVdutch
p27
I3404
sVcostume
p28
I2564
sVwomen's
p29
I1149
sVdriver's
p30
I1453
sVevery
p31
I3073
sVjack
p32
I1542
sVmessy
p33
I3553
sVisn't
p34
I3323
sVencounter
p35
I3299
sV38th
p36
I2412
sVbaking
p37
I1871
sVprize
p38
I1188
sVmotorcyclist
p39
I1592
sVcalled
p40
I3034
sVwooden
p41
I1378
sVpinch
p42
I1854
sVvenue
p43
I2166
sVpiling
p44
I2844
sVcasinos
p45
I3610
sVmopped
p46
I707
sVartist
p47
I2170
sVglued
p48
I1500
sVups
p49
I1359
sVclothes
p50
I21
sVbicycle
p51
I136
sVleaders
p52
I3675
sVquilt
p53
I639
sVtired
p54
I2940
sVphones
p55
I1616
sVrailing
p56
I2322
sVbacon
p57
I1955
sVwallpapering
p58
I2223
sVskillfully
p59
I3248
sVtires
p60
I441
sVdish
p61
I1683
sVshoveled
p62
I695
sVstreet
p63
I270
sVparter
p64
I883
sV275
p65
I1015
sV7th
p66
I2309
sVtether
p67
I3315
sVscraped
p68
I2836
sVsquarepants
p69
I3389
sVmachines
p70
I443
sVshining
p71
I3243
sVblue
p72
I36
sVhide
p73
I1766
sVcooking
p74
I492
sVdrifted
p75
I2842
sVbikini
p76
I548
sVwrestler's
p77
I2290
sVlights
p78
I109
sVabove
p79
I755
sVhull
p80
I2145
sVzoomed
p81
I686
sVnew
p82
I1253
sVnet
p83
I778
sVever
p84
I3494
sVdisney
p85
I2603
sVpressed
p86
I2715
sVcoefficient
p87
I2344
sVhelmets
p88
I404
sVkicked
p89
I2036
sVcrouch
p90
I1670
sVreporter
p91
I879
sVseventh
p92
I3079
sVmen
p93
I6
sVwrapping
p94
I1804
sVhere
p95
I1268
sVramp
p96
I3059
sVchassis
p97
I1088
sVchina
p98
I2342
sVpath
p99
I2218
sVpractices
p100
I3384
sVdry
p101
I1613
sVwatermelons
p102
I1623
sVbalance
p103
I372
sVbuckled
p104
I1917
sVitems
p105
I3373
sVleaves
p106
I674
sVchanged
p107
I1935
sVpiercing
p108
I2251
sVbuckles
p109
I2483
sVelectricity
p110
I3168
sVlaunched
p111
I2638
sVsmoke
p112
I244
sVpaddling
p113
I3446
sVbunker
p114
I1649
sVwelding
p115
I281
sVrafting
p116
I448
sVclimber
p117
I1909
sVeyebrows
p118
I2594
sVgolden
p119
I1023
sVbesides
p120
I3341
sVcampaign
p121
I2821
sVslices
p122
I1608
sVstraw
p123
I882
sVbackpacking
p124
I3492
sVexplained
p125
I728
sVseven
p126
I2508
sVguests
p127
I1845
sVjackets
p128
I1226
sVpunching
p129
I1520
sVtotal
p130
I387
sVhandlebar
p131
I3154
sVexplainer
p132
I887
sVpantyhose
p133
I2857
sVopponents
p134
I1975
sVswings
p135
I1897
sVspoke
p136
I681
sVrunner's
p137
I2469
sVarmy
p138
I2856
sVsweater
p139
I567
sVplayed
p140
I680
sVarms
p141
I1635
sVasses
p142
I3042
sVmusic
p143
I1162
sVbeeswax
p144
I1609
sVtype
p145
I900
sVsticker
p146
I3176
sVbreathe
p147
I1819
sVpreparation
p148
I1856
sVfake
p149
I3220
sVevening
p150
I3322
sVsuccessful
p151
I2285
sVunder
p152
I779
sVaward
p153
I2816
sVpierced
p154
I2055
sVglass
p155
I269
sVdeciduous
p156
I1311
sVwarm
p157
I1507
sVadult
p158
I453
sVkneading
p159
I2698
sVsmile
p160
I1785
sVhole
p161
I1099
sVhold
p162
I956
sVblindfold
p163
I110
sVmust
p164
I3325
sVshoot
p165
I829
sVword
p166
I1191
sVwore
p167
I736
sVskipping
p168
I284
sVhips
p169
I2526
sVsetup
p170
I811
sVwork
p171
I1256
sVroof
p172
I221
sVmeadows
p173
I3659
sVpedicurist
p174
I2841
sVlocker
p175
I1040
sVinstall
p176
I1693
sVelbow
p177
I1775
sVknoting
p178
I512
sVmy
p179
I1885
sVinstrut
p180
I3713
sVshook
p181
I3088
sVdecorative
p182
I1986
sVgive
p183
I809
sVnozzle
p184
I2207
sVloosened
p185
I3019
sV551
p186
I2317
sVleotards
p187
I3052
sVyarn
p188
I2328
sVwant
p189
I662
sVconditioner
p190
I1879
sVwrenched
p191
I2838
sVarpon
p192
I760
sVkeep
p193
I1997
sVacrobatic
p194
I2155
sV171
p195
I2496
sVend
p196
I384
sVturn
p197
I958
sVhoo
p198
I2975
sVslalom
p199
I3562
sVdamage
p200
I3545
sVbraids
p201
I391
sVmachine
p202
I799
sVhow
p203
I177
sVhot
p204
I2877
sVdrummer
p205
I608
sVinterview
p206
I726
sVgate
p207
I1161
sVblue-skinned
p208
I2401
sVbeach
p209
I591
sVgamble
p210
I1866
sVwallpapers
p211
I124
sVdescription
p212
I2134
sVmouths
p213
I1573
sVdisassemble
p214
I1886
sVmess
p215
I1939
sVladder
p216
I1031
sVafter
p217
I665
sVshores
p218
I737
sVjumping
p219
I160
sVpoked
p220
I3062
sVlay
p221
I2354
sVgrindstones
p222
I338
sVlap
p223
I2893
sVparallel
p224
I192
sVtypes
p225
I1323
sVthey're
p226
I2085
sVinterviewing
p227
I3444
sVlifesaving
p228
I3347
sVattempt
p229
I748
sVthird
p230
I2802
sVsets
p231
I2271
sVrafts
p232
I3468
sVwins
p233
I1054
sVno12
p234
I888
sVlost
p235
I2551
sVno10
p236
I552
sVcigarettes
p237
I1121
sVsandholes
p238
I423
sVmaintain
p239
I3527
sVgreen
p240
I53
sVcannonball
p241
I2774
sVgoodbye
p242
I1839
sVenter
p243
I1841
sVfan
p244
I1081
sVathletes
p245
I70
sVorder
p246
I2473
sVwind
p247
I1186
sVwine
p248
I239
sVoperations
p249
I2675
sVflippers
p250
I1589
sVdeck
p251
I2097
sVclapper
p252
I2135
sVover
p253
I1548
sVsickle
p254
I1746
sVoven
p255
I1106
sVkeyboard
p256
I2568
sVhook
p257
I2924
sVclapped
p258
I1578
sVbefore
p259
I689
sVscoring
p260
I3498
sVbeside
p261
I3308
sVfit
p262
I1355
sVharmonica
p263
I130
sVfairway
p264
I2174
sVentrant's
p265
I2149
sVfix
p266
I1638
sVsprays
p267
I3094
sVproduction
p268
I3253
sVgymnast
p269
I3491
sVcarve
p270
I943
sVweeks
p271
I3731
sVcarton
p272
I595
sVbelly
p273
I1485
sVthen
p274
I3175
sVthem
p275
I1314
sVflower-wearer
p276
I3363
sVtourist
p277
I2015
sVcombination
p278
I2297
sVplaster
p279
I2993
sVsafe
p280
I279
sVcollide
p281
I1906
sVflipping
p282
I2004
sVbreak
p283
I1682
sVvaulters
p284
I417
sVthey
p285
I95
sVplates
p286
I3692
sV17th
p287
I2318
sVupir
p288
I1663
sVblink
p289
I1862
sVsilver
p290
I634
sVbank
p291
I2151
sVbread
p292
I1085
sVmeat
p293
I2887
sVoxygen
p294
I1812
sVtree's
p295
I1087
sVpotatoes
p296
I233
sVrocks
p297
I1800
sVshoelace
p298
I2364
sVvictory
p299
I2491
sVarrow
p300
I1270
sVfitness
p301
I405
sVwent
p302
I697
sVside
p303
I770
sVmean
p304
I3569
sVlavender
p305
I3512
sVlifted
p306
I1924
sVhanger
p307
I2208
sVgarment
p308
I1817
sVtrain
p309
I1553
sVliquids
p310
I3435
sVgymnasium
p311
I2617
sVsled
p312
I1658
sVskins
p313
I1324
sVhairstyles
p314
I1595
sVtaught
p315
I3057
sVpractising
p316
I3455
sVjuggling
p317
I1421
sVice-cream
p318
I3648
sVlogo
p319
I427
sVcollector
p320
I1615
sVring
p321
I168
sVclothe
p322
I1072
sVpigments
p323
I1685
sVnetwork
p324
I3751
sVdriving
p325
I240
sVhaired
p326
I471
sVha
p327
I2805
sVwashed
p328
I721
sVsockets
p329
I3710
sVcontent
p330
I2450
sVre
p331
I1858
sVlaid
p332
I2051
sVgot
p333
I750
sVwasher
p334
I992
sVforth
p335
I1634
sVsliding
p336
I513
sVfoundation
p337
I2983
sVsplashed
p338
I2901
sVturning
p339
I709
sVhang
p340
I1518
sVunderfoot
p341
I1168
sVgiven
p342
I2957
sVstandard
p343
I3267
sVpumpkins
p344
I419
sVshoe-shining
p345
I2363
sVhoodie
p346
I505
sVpeople's
p347
I788
sVchecked
p348
I2658
sVknit
p349
I911
sVacrobat
p350
I2602
sVbear's
p351
I2189
sVcharacter's
p352
I3397
sVcompetes
p353
I1006
sVate
p354
I2876
sVphotographer's
p355
I2593
sVshelves
p356
I3657
sVstarts
p357
I485
sVdays
p358
I3275
sVheading
p359
I1473
sVbears
p360
I3602
sVlicked
p361
I671
sVsmokers
p362
I3043
sVadulthood
p363
I3178
sVsoda
p364
I1872
sVtied
p365
I1515
sVplanted
p366
I2847
sVonto
p367
I2778
sVbite
p368
I1912
sVdodgeball
p369
I84
sVchopped
p370
I1200
sVfeatures
p371
I3355
sVdexterity
p372
I3482
sVhoop
p373
I622
sVpuck
p374
I2781
sVhearing
p375
I2679
sVwash
p376
I268
sVspinning
p377
I2914
sVanother
p378
I1692
sVinsulation
p379
I2417
sVscissors
p380
I425
sVthick
p381
I1294
sVelectronic
p382
I3131
sVhood
p383
I2280
sVtraction
p384
I2624
sVtoy
p385
I798
sVten
p386
I2932
sVtop
p387
I866
sVgirls
p388
I336
sVtwisted
p389
I2010
sVelevator
p390
I1537
sVboating
p391
I173
sVmaster
p392
I1008
sVlegs
p393
I205
sV40th
p394
I2256
sVdogs
p395
I330
sVflamethrower
p396
I2882
sVcurtains
p397
I1322
sVceiling
p398
I3403
sVrewards
p399
I3366
sVbanister
p400
I2779
sVbalck
p401
I3379
sVcushions
p402
I361
sVbouncing
p403
I2274
sVtool
p404
I899
sVbrushes
p405
I308
sVserve
p406
I2886
sVtook
p407
I2016
sVfolded
p408
I2990
sVscorpions
p409
I2295
sVweightlifting
p410
I51
sVtying
p411
I3539
sVbrushed
p412
I2014
sVdug
p413
I2878
sVbegins
p414
I3684
sVchef
p415
I461
sVtarget
p416
I970
sVshowed
p417
I2063
sVfinger-guessing
p418
I2645
sVisthe
p419
I3576
sVtree
p420
I653
sVlikely
p421
I1291
sV9km
p422
I1326
sVtourists
p423
I3045
sVproject
p424
I1251
sVpainful
p425
I3263
sViron
p426
I190
sVfeeling
p427
I543
sVcork
p428
I3411
sVteacher\u2019s
p429
I2435
sVbridge
p430
I903
sVdonkey
p431
I455
sVblender
p432
I2291
sVrunner
p433
I885
sVnavigate
p434
I2359
sVmodern
p435
I3770
sVpaddles
p436
I3463
sVspectrum
p437
I2915
sVyachts
p438
I2000
sVtalking
p439
I121
sVsportsmen
p440
I3461
sVshell
p441
I2635
sVshrubs
p442
I2371
sVscrews
p443
I1676
sVfishes
p444
I3636
sVgrind
p445
I1687
sVspade
p446
I645
sVstrength
p447
I154
sVpush-ups
p448
I3027
sVclenched
p449
I3011
sVsoaked
p450
I3100
sV-
I1219
sVsnow
p451
I207
sVchest
p452
I1248
sVmaterials
p453
I1310
sVhoods
p454
I2423
sVrides
p455
I2575
sVrider
p456
I86
sVpaintbrush
p457
I2611
sVcircles
p458
I2929
sVblouse
p459
I1299
sVweeding
p460
I215
sVwrists
p461
I1351
sVbeauty
p462
I2911
sVobject
p463
I1108
sVmashed
p464
I2670
sVmouth
p465
I1217
sVletter
p466
I840
sVcircled
p467
I2894
sVexercises
p468
I50
sVdangled
p469
I3014
sVlaughing
p470
I1519
sVgirl's
p471
I607
sVdummy
p472
I3516
sVsinger
p473
I975
sVflowery
p474
I3148
sVsplints
p475
I1642
sVmetal
p476
I1829
sVdog
p477
I212
sVdoe
p478
I906
sVmissed
p479
I2860
sVcompetitors
p480
I558
sVpoints
p481
I2092
sVsun
p482
I2100
sVwarming
p483
I3445
sVgoalkeepers
p484
I337
sVdot
p485
I2183
sVbeaten
p486
I1508
sVbomb
p487
I2319
sVfingers
p488
I2202
sVhelping
p489
I3221
sVstepping
p490
I2465
sVparticipate
p491
I3683
sVbushes
p492
I963
sVtoast
p493
I2890
sVjudges
p494
I347
sVfinally
p495
I1233
sVexcavator
p496
I2300
sVchang
p497
I2810
sVheadline
p498
I2479
sVhatchet
p499
I3645
sVunderpants
p500
I1210
sVbaby's
p501
I1141
sVsugar
p502
I1707
sVbush
p503
I2169
sVtouched
p504
I2046
sVmend
p505
I3754
sVshoeshine
p506
I1713
sVwearing
p507
I13
sVdo
p508
I126
sVtiles
p509
I895
sVsunglasses
p510
I60
sVcolorful
p511
I468
sVrailings
p512
I2598
sVwatch
p513
I101
sVfluid
p514
I1795
sVforemost
p515
I1289
sVpatted
p516
I2705
sVwatermelon
p517
I3091
sVtiled
p518
I2925
sVcushion
p519
I893
sValtogether
p520
I3688
sVknocks
p521
I1221
sVtoolbox
p522
I1419
sVpouting
p523
I2409
sVundressed
p524
I1138
sVduck's
p525
I3401
sVprune
p526
I3528
sVshaking
p527
I2710
sVbat
p528
I2116
sVowner's
p529
I1145
sV17
p530
I2480
sVcovering
p531
I3476
sVexchanged
p532
I2691
sVtights
p533
I1539
sVrowing
p534
I741
sVmethod
p535
I2347
sVbag
p536
I616
sVeyelids
p537
I1828
sVcoke
p538
I3213
sVshots
p539
I430
sVleader's
p540
I2308
sVbal
p541
I2720
sVgrandma's
p542
I3276
sVboarded
p543
I3016
sVscrubbed
p544
I2923
sVears
p545
I1648
sVblew
p546
I2089
sVswept
p547
I2840
sVlemonade
p548
I138
sVresist
p549
I1576
sVpads
p550
I1043
sVresult
p551
I2529
sVholding
p552
I66
sVfail
p553
I3489
sVlacquer
p554
I3590
sVnoodles
p555
I1165
sVhammer
p556
I717
sVpricking
p557
I1740
sViswashing
p558
I3592
sVsaid
p559
I2714
sVpedicure
p560
I2441
sVlots
p561
I315
sVaway
p562
I1651
sVsail
p563
I643
sVrings
p564
I1783
sVshaved
p565
I974
sVgrandmother
p566
I1195
sVmud
p567
I3394
sVunable
p568
I2120
sVolympics
p569
I3202
sVfinger
p570
I765
sVcooperation
p571
I2338
sVprops
p572
I1645
sVdrawn
p573
I3709
sVshaves
p574
I2488
sVshaver
p575
I2608
sVapproach
p576
I1930
sVshields
p577
I3706
sVglossy
p578
I3318
sVwe
p579
I1281
sVwears
p580
I925
sVadding
p581
I2146
sVrolled
p582
I2068
sVfruits
p583
I3640
sVpackaged
p584
I1107
sVlotion
p585
I1880
sVtoothbrush
p586
I651
sV'clothes
p587
I2599
sVloading
p588
I2942
sVwear
p589
I106
sVhuang
p590
I2489
sVbeautician
p591
I555
sVtendons
p592
I2615
sVnews
p593
I366
sVpicking
p594
I1386
sVhaven't
p595
I3557
sVroller
p596
I261
sVkitchen
p597
I1599
sVreceived
p598
I2463
sVprotect
p599
I2661
sVaccident
p600
I529
sVsharping
p601
I3286
sVcow
p602
I352
sVcountry
p603
I924
sVbeacon
p604
I2227
sVagainst
p605
I2228
sVparticipating
p606
I2493
sVplayers
p607
I293
sVbookcase
p608
I1156
sVgames
p609
I57
sVfaces
p610
I403
sVstudio
p611
I3181
sVlenses
p612
I223
sVappeared
p613
I323
sVcharacter
p614
I2402
sVheight
p615
I2432
sVlanterns
p616
I1313
sVtowels
p617
I439
sVblending
p618
I3250
sVloaded
p619
I2119
sVblonde
p620
I303
sVpanel
p621
I2252
sVspeak
p622
I922
sVcontestants
p623
I1570
sVbathroom
p624
I390
sVskidded
p625
I2855
sVputs
p626
I2081
sVshouting
p627
I1501
sVbikinis
p628
I1779
sVfrist
p629
I3339
sVropes
p630
I1972
sVthree
p631
I875
sVbeen
p632
I132
sVquickly
p633
I1838
sVchimneys
p634
I3614
sVbeer
p635
I807
sVspread
p636
I1985
sVstadium
p637
I1778
sVblowed
p638
I690
sVbasin
p639
I1079
sVthrew
p640
I694
sVdots
p641
I3427
sVfatter
p642
I3376
sVlife
p643
I482
sVspit
p644
I1373
sVattacked
p645
I2641
sVdroplets
p646
I2737
sVglided
p647
I3067
sVaffixed
p648
I3211
sVlift
p649
I1348
sVchild
p650
I15
sVcatch
p651
I808
sVspin
p652
I953
sVapplied
p653
I2764
sVclosthes
p654
I881
sVtank
p655
I3570
sVsculpt
p656
I3290
sVoriginate
p657
I921
sVair
p658
I1933
sVaim
p659
I969
sVnear
p660
I2879
sVmelted
p661
I2818
sVteachers
p662
I3721
sVgave
p663
I698
sVstudy
p664
I1948
sVskirts
p665
I410
sVmistake
p666
I2807
sVstop
p667
I1911
sVclimbed
p668
I2902
sVcanoeing
p669
I196
sVhandrail
p670
I1242
sVis
p671
I8
sVsushi
p672
I3514
sVit
p673
I97
sVplayes
p674
I2760
sVplayer
p675
I72
sVmascara
p676
I2823
sVtraffic
p677
I2647
sVclinging
p678
I3215
sVin
p679
I4
sVviolin
p680
I275
sVmouse
p681
I2216
sVif
p682
I2633
sVcontaining
p683
I3398
sVbottles
p684
I306
sVperform
p685
I660
sVthings
p686
I1522
sVmake
p687
I272
sVtoaster
p688
I2327
sVforehead
p689
I2204
sVcomplex
p690
I3252
sVpatient
p691
I1941
sVsplit
p692
I1344
sVbabies
p693
I295
sVevaluate
p694
I3567
sVcross-country
p695
I1246
sVgrooming
p696
I3452
sVshoveling
p697
I206
sVseveral
p698
I2468
sVshowing
p699
I2091
sVadvertising
p700
I3454
sVwheel
p701
I1113
sVmeets
p702
I2913
sVbearded
p703
I1457
sVbasketballs
p704
I299
sVcheeks
p705
I3070
sVgateball
p706
I2366
sVtops
p707
I1262
sVrain
p708
I3210
sVhand
p709
I116
sVhooded
p710
I3775
sVgarlic
p711
I1984
sVcharacters
p712
I1835
sVmilitary
p713
I1982
sVtune
p714
I1411
sVkid
p715
I545
sVbutter
p716
I1881
sVhearth
p717
I3646
sVsomeone's
p718
I2906
sVpracticed
p719
I2931
sVdishes
p720
I1758
sVscenario
p721
I1263
sVcross
p722
I3421
sVchanges
p723
I2215
sVsmokes
p724
I1052
sVthr
p725
I3409
sVdeal
p726
I2849
sVocean
p727
I2584
sVcranes
p728
I3621
sVcontact
p729
I222
sVmother
p730
I2460
sVhearts
p731
I2249
sVthe
p732
I2
sVsmoked
p733
I1922
sVmusical
p734
I373
sVleft
p735
I167
sVassembling
p736
I2390
sVjavelins
p737
I919
sVphotographer
p738
I2498
sVjust
p739
I3196
sVsentence
p740
I841
sVphoto
p741
I1558
sVlaptop
p742
I2262
sVmending
p743
I3187
sVrotated
p744
I1643
sVboatmen
p745
I3041
sVdecorated
p746
I2101
sVgoggles
p747
I1773
sVthumbs
p748
I1462
sVhuman
p749
I1860
sVscimitar
p750
I3535
sVrotates
p751
I2028
sVtattooed
p752
I1497
sVrushing
p753
I2885
sVjumpers
p754
I340
sVhai
p755
I1111
sVham
p756
I2429
sVflooring
p757
I3245
sVingredient
p758
I2137
sVbalances
p759
I3597
sVroyal
p760
I930
sVshout
p761
I1910
sVbelongs
p762
I872
sVboard
p763
I398
sVeasy
p764
I897
sVswimmin
p765
I3442
sVcontestant
p766
I1010
sVhas
p767
I995
sVhat
p768
I100
sVphotographed
p769
I1062
sVperoson
p770
I2238
sVsailors
p771
I1857
sVbands
p772
I1768
sVpossible
p773
I1383
sVcaps
p774
I1297
sVboxes
p775
I3124
sVboxer
p776
I1075
sVbackground
p777
I3390
sVcamel's
p778
I2546
sValtitude
p779
I3575
sVshadow
p780
I2822
sVapart
p781
I2989
sVshoulder
p782
I1620
sVappearing
p783
I613
sVgift
p784
I1900
sV55
p785
I3680
sV54
p786
I1212
sVperforming
p787
I224
sV52
p788
I1018
sVpesticides
p789
I2545
sVpavement
p790
I2475
sVaccordions
p791
I289
sVsteps
p792
I1371
sVofficer
p793
I2499
sVunpacking
p794
I3233
sVnight
p795
I99
sVhung
p796
I1128
sVsecurity
p797
I3439
sVright
p798
I115
sVold
p799
I360
sVtrained
p800
I2962
sVcrowd
p801
I1925
sVpeople
p802
I3
sVmowers
p803
I358
sVelderly
p804
I1319
sVsponge
p805
I654
sVclubs
p806
I1660
sVmeters
p807
I3661
sVbillboard
p808
I2157
sV52nd
p809
I2311
sVbanknotes
p810
I3598
sVfor
p811
I93
sVbottom
p812
I1178
sVpurple
p813
I117
sVnormal
p814
I3272
sVinside
p815
I2517
sVice
p816
I904
sVplucked
p817
I2301
sVperforpersonce
p818
I3206
sVbullfight
p819
I696
sVtreadmill
p820
I771
sVskateboarder
p821
I2684
sVchristmas
p822
I320
sVcord
p823
I2105
sVkhaki
p824
I1021
sVpeel
p825
I232
sVdental
p826
I3229
sVpose
p827
I1288
sVdisappeared
p828
I2741
sVfamale
p829
I3119
sVlamps
p830
I3638
sVdefensive
p831
I1587
sVscarves
p832
I1796
sVpliers
p833
I1249
sVblowers
p834
I3605
sVdead
p835
I2694
sVtrophy
p836
I1164
sVwht
p837
I3415
sVeaves
p838
I2377
sVcowboy
p839
I1293
sVshield
p840
I3068
sVdinner
p841
I3188
sVarm-wrestling
p842
I2837
sVraised
p843
I2050
sVwatering
p844
I1498
sVsunglass
p845
I3193
sVfacility
p846
I2532
sVmaterial
p847
I835
sVselfie
p848
I2609
sVfloat
p849
I1777
sVprofession
p850
I2141
sVgargle
p851
I1356
sVbath
p852
I699
sVdown
p853
I408
sVlies
p854
I3018
sVexplain
p855
I1572
sVcarving
p856
I802
sVwrap
p857
I1737
sVshoots
p858
I2201
sVreducing
p859
I3674
sVmethods
p860
I3654
sVrely
p861
I2676
sVfabric
p862
I2123
sVsupport
p863
I1541
sVtennis
p864
I265
sVvacates
p865
I2462
sVfight
p866
I68
sVstuck
p867
I2735
sVgrasping
p868
I3321
sVtowing
p869
I3440
sVboy's
p870
I785
sVway
p871
I257
sVwax
p872
I1585
sVoverhead
p873
I1780
sVwas
p874
I685
sVwar
p875
I832
sVhappy
p876
I1493
sVhead
p877
I575
sVmedium
p878
I1832
sVwaistcoat
p879
I2833
sVsnowy
p880
I2198
sVtendon
p881
I1438
sVlanding
p882
I1487
sVheat
p883
I1689
sVneedles
p884
I2769
sVbounce
p885
I1767
sVheap
p886
I3150
sV227
p887
I2323
sVsailboats
p888
I420
sVremoved
p889
I2866
sV222
p890
I2211
sVroots
p891
I3703
sVpavilion
p892
I848
sVelse's
p893
I2070
sVgoggle
p894
I3424
sVpeson
p895
I767
sVstilts
p896
I1408
sVattached
p897
I1287
sVmaximum
p898
I2433
sVdevices
p899
I1627
sVtell
p900
I3483
sVdecorate
p901
I949
sVsoldering
p902
I2225
sVboomerang
p903
I3190
sVduet
p904
I3126
sVoperator's
p905
I3204
sVtrim
p906
I825
sVseparated
p907
I2790
sVtrio
p908
I3141
sVlater
p909
I3236
sVsticks
p910
I1368
sVbathrobe
p911
I1451
sVcovers
p912
I1617
sVmanure
p913
I1307
sVfixes
p914
I2606
sVlist
p915
I2464
sVguessed
p916
I2874
sVclinking
p917
I2522
sVfloating
p918
I1337
sVmold
p919
I2124
sVdealer
p920
I877
sVshit
p921
I3550
sVphysical
p922
I3352
sVpipe
p923
I2573
sVno
p924
I1139
sVwaists
p925
I2481
sVwhen
p926
I134
sVhanded
p927
I1401
sVgrabbing
p928
I2539
sVtin
p929
I1738
sVrole
p930
I855
sVevasive
p931
I436
sVdigital
p932
I2387
sVtest
p933
I1723
sVtie
p934
I1153
sVribbons
p935
I2003
sVroll
p936
I2357
sVsteamship
p937
I3410
sVscored
p938
I2702
sVpicture
p939
I1055
sVsling
p940
I1137
sVjuicer
p941
I3431
sVfootball
p942
I45
sVflusher
p943
I2406
sVgrassland
p944
I3346
sVgrinders
p945
I3595
sVfell
p946
I2052
sVscorer
p947
I2230
sVscores
p948
I1513
sVstrips
p949
I3718
sVdied
p950
I2729
sVbegan
p951
I3687
sVyounger
p952
I3386
sVrabbit
p953
I1874
sVhappening
p954
I1388
sVbullet
p955
I2596
sVpotato
p956
I1193
sVnavel
p957
I3226
sVsplintered
p958
I3372
sVyacht
p959
I817
sVlanded
p960
I2273
sVtogether
p961
I1510
sVjacket
p962
I483
sVsax's
p963
I3484
sVtime
p964
I909
sVpush
p965
I1755
sVfasten
p966
I1637
sVbanners
p967
I3399
sVslope
p968
I2776
sVcoach
p969
I462
sVbroke
p970
I2245
sVchain
p971
I1433
sVdance
p972
I187
sVskip
p973
I826
sVskis
p974
I1586
sVrod
p975
I966
sVwashcloth
p976
I1801
sVhorseback
p977
I1298
sVleads
p978
I2427
sVskate
p979
I1352
sVmicrowave
p980
I2267
sVskiing
p981
I146
sVbattle
p982
I401
sVchair
p983
I596
sVsmock
p984
I3195
sVskid
p985
I3117
sVrow
p986
I1222
sVlayers
p987
I3656
sVballet
p988
I1384
sVuneven
p989
I1345
sVhump
p990
I2547
sVcoach's
p991
I791
sVbicycles
p992
I300
sVrhythm
p993
I1618
sVscythe
p994
I3163
sVseabed
p995
I3260
sVbrown
p996
I307
sVprotective
p997
I568
sVstring
p998
I1464
sVhatter
p999
I2804
sVfriction
p1000
I3312
sVknapsack
p1001
I3058
sVcook
p1002
I585
sVjoin
p1003
I1695
sVroom
p1004
I396
sVcooks
p1005
I3264
sVgambled
p1006
I2928
sVflammable
p1007
I2391
sVdark-haired
p1008
I2153
sVlevel
p1009
I2337
sVdid
p1010
I1328
sV12th
p1011
I1041
sVdig
p1012
I1805
sVgun
p1013
I1135
sVcloudy
p1014
I522
sVox
p1015
I3741
sVleave
p1016
I1536
sVitem
p1017
I1123
sVguitars
p1018
I3644
sVteam
p1019
I519
sVquick
p1020
I2946
sVguy
p1021
I35
sVdip
p1022
I1594
sVround
p1023
I1949
sVshave
p1024
I827
sVupper
p1025
I2456
sVolympic
p1026
I530
sVtalked
p1027
I2871
sVmeadow
p1028
I627
sVseasoning
p1029
I1127
sVsawed
p1030
I2102
sVdedusting
p1031
I1389
sVsign
p1032
I2445
sVshakes
p1033
I3074
sVchopping
p1034
I230
sVshirts
p1035
I388
sVtakeoff
p1036
I703
sVeating
p1037
I846
sVbake
p1038
I2669
sVtargets
p1039
I3720
sVdrinks
p1040
I162
sVheadset
p1041
I1098
sVappear
p1042
I312
sVsweeps
p1043
I2798
sVuniform
p1044
I2159
sVgoes
p1045
I2637
sVfalling
p1046
I729
sVcurled
p1047
I2246
sVsweaters
p1048
I1261
sVsupporting
p1049
I1936
sVburn
p1050
I1362
sVjury
p1051
I845
sVclimbs
p1052
I2761
sVreceiving
p1053
I2734
sVmakeup
p1054
I157
sVcreamed
p1055
I2926
sVfrench
p1056
I3144
sVwater
p1057
I158
sVknocked
p1058
I2098
sVhalf-naked
p1059
I1846
sVbaseball
p1060
I821
sVgroups
p1061
I2521
sValone
p1062
I2636
sValong
p1063
I2690
sVsieve
p1064
I1207
sVhoops
p1065
I1575
sVappears
p1066
I42
sVchange
p1067
I1407
sVwait
p1068
I1761
sVbox
p1069
I819
sVboy
p1070
I33
sVchef's
p1071
I566
sVcanadian
p1072
I762
sVhealthy
p1073
I3441
sVshift
p1074
I1744
sVisinstalling
p1075
I3584
sVbow
p1076
I1442
sVqueue
p1077
I1708
sVsharpening
p1078
I506
sVlaw-abiding
p1079
I3763
sVpictorial
p1080
I3603
sVraccoon
p1081
I1336
sViscutting
p1082
I3580
sVcountry's
p1083
I923
sVmassage
p1084
I935
sVcarpets
p1085
I1611
sVhaircutting
p1086
I487
sVuseful
p1087
I3146
sVextra
p1088
I1524
sVmarked
p1089
I3767
sVkayak
p1090
I999
sVtartan
p1091
I3362
sVsnowboard
p1092
I3268
sVlicensing
p1093
I2831
sV1st
p1094
I2222
sVleft-most
p1095
I3382
sVforefront
p1096
I2420
sVshould
p1097
I1990
sVeverybody
p1098
I3360
sVbieber's
p1099
I2625
sVcocktail
p1100
I3655
sVjudge's
p1101
I3269
sVdiscus
p1102
I65
sVworking
p1103
I2485
sVprotection
p1104
I3750
sVsports
p1105
I113
sVlive
p1106
I3449
sVwood
p1107
I231
sVsomersault
p1108
I725
sVmemory
p1109
I3542
sVsharpen
p1110
I810
sVdangrous
p1111
I3258
sVhigh-speed
p1112
I2540
sVplug
p1113
I1702
sVgloved
p1114
I2407
sVconductor
p1115
I2405
sVgranny's
p1116
I1405
sVclub
p1117
I1447
sVpillow
p1118
I2321
sVequipped
p1119
I3134
sVchocolate
p1120
I3387
sVriders
p1121
I1342
sVfly
p1122
I1402
sVgraphic
p1123
I2386
sVsheds
p1124
I3700
sVcollision
p1125
I2709
sVcar
p1126
I229
sVcap
p1127
I758
sVcat
p1128
I460
sVcan
p1129
I580
sV9th
p1130
I2164
sVfollowing
p1131
I1170
sVmaking
p1132
I107
sVmeatball
p1133
I3147
sVgunfire
p1134
I1347
sVdodge
p1135
I1579
sVsandbag
p1136
I796
sVmodulation
p1137
I3565
sVnursing
p1138
I3572
sVfigure
p1139
I1229
sVmirrors
p1140
I354
sVchip
p1141
I3406
sVcookers
p1142
I3618
sVdidn't
p1143
I3228
sVmailboxes
p1144
I3658
sVagent
p1145
I2726
sVtopic
p1146
I861
sVtinted
p1147
I2082
sVdropped
p1148
I1277
sVpast
p1149
I3038
sVpersonicure
p1150
I3152
sVprovoke
p1151
I3761
sVclothing
p1152
I1300
sVoccur
p1153
I907
sVspf
p1154
I1125
sVpink
p1155
I56
sVwinter
p1156
I516
sVcans
p1157
I3725
sVsailboat
p1158
I422
sVnecklaces
p1159
I3504
sVping
p1160
I55
sVtrophies
p1161
I328
sV1
I1009
sVrubik
p1162
I824
sVelephant
p1163
I1007
sVtile
p1164
I650
sVspeaks
p1165
I3408
sVt-shirts
p1166
I1216
sVyellow-haired
p1167
I2178
sVloaves
p1168
I2982
sVproduct
p1169
I677
sVdesigner
p1170
I2649
sVlaundry
p1171
I214
sVmat
p1172
I626
sVstaircase
p1173
I1241
sVmay
p1174
I1272
sVdive
p1175
I188
sVfed
p1176
I2664
sVspot
p1177
I3472
sVgelatin
p1178
I3145
sVmac
p1179
I3197
sV4th
p1180
I2217
sVcourses
p1181
I3620
sVfloral
p1182
I3098
sVsuch
p1183
I2355
sVtablecloth
p1184
I2621
sVheadscarf
p1185
I481
sVgrow
p1186
I1531
sVlifting
p1187
I507
sVman
p1188
I25
sVclassroom
p1189
I3066
sVpulley
p1190
I1205
sVsurfing
p1191
I151
sVbranches
p1192
I1395
sVneck
p1193
I774
sVliquid
p1194
I951
sVwiggle
p1195
I1969
sVkhakis
p1196
I3509
sVdispersontle
p1197
I3222
sVswitch
p1198
I1983
sVso
p1199
I1492
sVtidied
p1200
I3092
sVbasket
p1201
I1482
sVtall
p1202
I3050
sVpulled
p1203
I679
sVskied
p1204
I3008
sVtalk
p1205
I1722
sVbracers
p1206
I1480
sVserving
p1207
I1491
sVshoes
p1208
I59
sVseeing
p1209
I2972
sVkayaks
p1210
I1974
sVhaircut
p1211
I620
sVdisplayed
p1212
I1159
sVflips
p1213
I977
sVended
p1214
I2644
sVno8
p1215
I3416
sVno9
p1216
I553
sVshake
p1217
I1528
sVrazors
p1218
I1863
sVcold
p1219
I3274
sVbraid
p1220
I459
sVmiddle-aged
p1221
I2528
sVno1
p1222
I551
sVno3
p1223
I9
sVtore
p1224
I2988
sVpolice
p1225
I2161
sVblouses
p1226
I1285
sVcurly
p1227
I62
sVaccordion
p1228
I242
sVwring
p1229
I2791
sVcheerleaders
p1230
I1822
sVcurls
p1231
I2062
sVplatform
p1232
I400
sVwindow
p1233
I896
sVplayback
p1234
I1420
sVtillage
p1235
I3753
sVskills
p1236
I3736
sVmain
p1237
I858
sV23th
p1238
I3348
sVhappened
p1239
I664
sVapron
p1240
I561
sVpruned
p1241
I2903
sVsmash
p1242
I1741
sVkiller
p1243
I2665
sVintroduce
p1244
I870
sVunderneath
p1245
I1169
sVboats
p1246
I1516
sVtouching
p1247
I2973
sVpruner
p1248
I3061
sVprunes
p1249
I987
sVbase
p1250
I2580
sVhalf
p1251
I1849
sVnot
p1252
I547
sVnow
p1253
I1278
sVkilled
p1254
I2828
sVrunners
p1255
I1414
sVname
p1256
I859
sVhat-wearing
p1257
I2509
sVbelts
p1258
I1980
sVarrows
p1259
I497
sVfisherman
p1260
I2663
sVpinball
p1261
I2613
sVrock
p1262
I199
sVrepaired
p1263
I691
sVunloaded
p1264
I2853
sVtrunks
p1265
I563
sVeyelid
p1266
I3771
sVindividuals
p1267
I3649
sVelephants
p1268
I2459
sVbitumen
p1269
I1163
sVdirecting
p1270
I2646
sVsprinkle
p1271
I1646
sVhapped
p1272
I901
sVframes
p1273
I3733
sVcatching
p1274
I666
sVsponsor
p1275
I1483
sVentering
p1276
I1529
sVyear
p1277
I915
sVgirl
p1278
I19
sVcalling
p1279
I3214
sVflutes
p1280
I3639
sVirons
p1281
I344
sVliving
p1282
I2136
sVcanvas
p1283
I1066
sVcontainer
p1284
I780
sVopened
p1285
I2080
sV3rd
p1286
I2504
sVspace
p1287
I2258
sV1170
p1288
I3326
sVweld
p1289
I2009
sVdrinker
p1290
I2688
sVrolls
p1291
I3029
sVincrease
p1292
I1590
sVblower
p1293
I1882
sVseriously
p1294
I3249
sVinternet
p1295
I2965
sVsquares
p1296
I2616
sVemanating
p1297
I3278
sVshows
p1298
I2795
sVlubricating
p1299
I3165
sVhula
p1300
I621
sVbolts
p1301
I3369
sVhairdresser
p1302
I1312
sVcars
p1303
I313
sVinhaled
p1304
I2991
sVbullring
p1305
I2214
sVcart
p1306
I3402
sVsnooker
p1307
I3533
sVadvantages
p1308
I2239
sVtrademarks
p1309
I3330
sVgrandma
p1310
I1258
sVheadband
p1311
I480
sVgrab
p1312
I1566
sVcard
p1313
I1086
sVcare
p1314
I1120
sVtraining
p1315
I213
sVheadphones
p1316
I572
sVpunk
p1317
I3742
sVbritish
p1318
I3551
sV16th
p1319
I2158
sVmotion
p1320
I1404
sVthing
p1321
I1151
sVathletes'
p1322
I789
sVplace
p1323
I172
sVswing
p1324
I649
sVthink
p1325
I1762
sVteammates
p1326
I1540
sVfirst
p1327
I41
sVflying
p1328
I234
sVshears
p1329
I1619
sVcommentator
p1330
I3120
sVoccupations
p1331
I1279
sVcoming
p1332
I3254
sVgargling
p1333
I723
sVrubik's
p1334
I2260
sVone
p1335
I535
sVpersom
p1336
I3465
sVlong
p1337
I23
sVcarry
p1338
I1306
sVpotted
p1339
I1092
sVhairdressers
p1340
I339
sVopen
p1341
I1449
sVsize
p1342
I1436
sVsheep
p1343
I1117
sVcity
p1344
I3139
sVlittle
p1345
I470
sVrightmost
p1346
I2530
sVsheet
p1347
I1148
sVplaing
p1348
I3313
sVcaught
p1349
I601
sVbreed
p1350
I782
sVplastic
p1351
I3097
sVanyone
p1352
I531
sVadult's
p1353
I1456
sVchecker
p1354
I1204
sV2
I1011
sVheaddress
p1355
I2803
sVwhite
p1356
I39
sVparticipated
p1357
I2518
sVspeaking
p1358
I2652
sVgives
p1359
I980
sVpaved
p1360
I1887
sVeyes
p1361
I1653
sVthat
p1362
I590
sVseason
p1363
I445
sVmen's
p1364
I1104
sVcheerleading
p1365
I2352
sVbroadcast
p1366
I706
sVreleased
p1367
I1118
sVbutt
p1368
I1198
sVflowers
p1369
I1654
sVholder
p1370
I2233
sVthan
p1371
I1503
sV11
p1372
I1907
sV10
p1373
I1400
sV12
p1374
I1283
sV14
p1375
I2466
sVsailing
p1376
I475
sV19
p1377
I3007
sVscraping
p1378
I1077
sVflesh-colored
p1379
I2186
sVwhom
p1380
I3747
sVtaekwondoes
p1381
I3529
sVcoats
p1382
I385
sVofficials
p1383
I3652
sVknives
p1384
I351
sVmagnesium
p1385
I1556
sVcymbals
p1386
I886
sVwere
p1387
I1424
sVcards
p1388
I1410
sVscuba
p1389
I3013
sVdemonstrative
p1390
I3524
sVand
p1391
I509
sVgathering
p1392
I2341
sVtwisting
p1393
I2525
sVturned
p1394
I716
sVslap
p1395
I2399
sVdeparture
p1396
I3064
sVhappily
p1397
I3333
sVoperated
p1398
I3681
sVsay
p1399
I2683
sVsax
p1400
I424
sVbathed
p1401
I2994
sVspectacle
p1402
I3191
sVhorsepower
p1403
I1591
sVrecover
p1404
I800
sVsaw
p1405
I2707
sVany
p1406
I104
sVmarathon
p1407
I2361
sVsat
p1408
I2058
sVsquat
p1409
I1584
sVwashbasin
p1410
I1183
sVinstructed
p1411
I2930
sVsix
p1412
I2967
sVequipment
p1413
I862
sVanimation
p1414
I2154
sVhookah
p1415
I245
sVtake
p1416
I171
sVperformance
p1417
I1581
sVtambourine
p1418
I2591
sVsurf
p1419
I917
sVsurfaces
p1420
I1788
sVbegin
p1421
I2754
sVskinned
p1422
I1564
sVcleaners
p1423
I1534
sVopposite
p1424
I2510
sVtrack
p1425
I2107
sVkeeps
p1426
I3056
sVfalls
p1427
I2783
sVsheets
p1428
I2610
sVmicro
p1429
I3752
sVpair
p1430
I1282
sVknee
p1431
I1042
sVcleared
p1432
I3021
sVinserted
p1433
I3422
sVarmrest
p1434
I2780
sVlawn
p1435
I623
sVespecially
p1436
I1569
sVcloth
p1437
I67
sVshooter
p1438
I2970
sVsteady
p1439
I1964
sVdrive
p1440
I816
sVcurlings
p1441
I3294
sVgroom's
p1442
I1143
sVaxe
p1443
I1597
sVstockings
p1444
I2918
sVprofessional
p1445
I3555
sVsalt
p1446
I1790
sVshop
p1447
I1257
sVrating
p1448
I2495
sVwalking
p1449
I476
sVshot
p1450
I732
sVsolar
p1451
I3711
sVshow
p1452
I371
sVcurler
p1453
I1694
sVapplauding
p1454
I3768
sVscoreboard
p1455
I2535
sVkwon
p1456
I2039
sVhairpin
p1457
I3234
sVbright
p1458
I2681
sVshoe
p1459
I247
sVcorner
p1460
I1904
sVmops
p1461
I355
sVfifth
p1462
I2891
sVground
p1463
I500
sVslot
p1464
I3155
sVdice
p1465
I1192
sVstair
p1466
I2536
sVchallenge
p1467
I3085
sVdon't
p1468
I1821
sVblinde
p1469
I557
sVstate
p1470
I1129
sVpianos
p1471
I3691
sVonly
p1472
I534
sVgoing
p1473
I853
sVblack
p1474
I20
sVhockey
p1475
I282
sVfencedded
p1476
I2875
sVstain
p1477
I2630
sVwool
p1478
I1971
sVpumpkin
p1479
I108
sVlighted
p1480
I2448
sVwelders
p1481
I3732
sVget
p1482
I1243
sVsurfaced
p1483
I2077
sVbegging
p1484
I2502
sVspraying
p1485
I2544
sVfouled
p1486
I3490
sVmoppped
p1487
I752
sVoutlet
p1488
I3651
sVlighter
p1489
I957
sVcylinders
p1490
I1903
sVcelebrate
p1491
I1606
sVgel
p1492
I1733
sVheld
p1493
I1471
sVleather
p1494
I1202
sVdriers
p1495
I3537
sVbreeches
p1496
I3227
sVnaked
p1497
I1049
sVassembly
p1498
I3540
sVdough
p1499
I2699
sVfinishing
p1500
I2650
sVtent
p1501
I2582
sVwhere
p1502
I916
sVshirt-wearing
p1503
I2032
sVmicrophones
p1504
I1360
sVsherra
p1505
I1526
sVbids
p1506
I3676
sVstation
p1507
I3679
sVdived
p1508
I735
sVseat
p1509
I2024
sVcocktails
p1510
I1836
sVasleep
p1511
I3199
sVparking
p1512
I314
sVathlete's
p1513
I574
sVsport
p1514
I175
sVdives
p1515
I3593
sVdiver
p1516
I1160
sVcat's
p1517
I619
sVcadets
p1518
I1363
sVpurpose
p1519
I871
sVjumped
p1520
I733
sVornament
p1521
I1454
sVsites
p1522
I3707
sVits
p1523
I532
sVteacup
p1524
I3486
sV3
I1333
sVhip-hop
p1525
I2845
sVbetween
p1526
I541
sVreading
p1527
I2824
sVacross
p1528
I2797
sVjumper
p1529
I2265
sVcheckered
p1530
I2912
sVspring
p1531
I2378
sVscreen
p1532
I1223
sVguitar
p1533
I466
sVsurrounded
p1534
I3629
sVcomb
p1535
I600
sVcome
p1536
I928
sVtug
p1537
I831
sVmany
p1538
I91
sVflipped
p1539
I2117
sVtour
p1540
I3517
sVwheels
p1541
I1624
sVexpression
p1542
I2384
sVbackpack
p1543
I2209
sVcan't
p1544
I1913
sVlong-sleeved
p1545
I1979
sVjitter
p1546
I3552
sVcolor
p1547
I463
sVpot
p1548
I781
sVdark-skinned
p1549
I3485
sVjeans
p1550
I345
sVvenues
p1551
I335
sVcommunicated
p1552
I3002
sVpole
p1553
I416
sVwhite-haired
p1554
I2143
sVstretched
p1555
I2057
sVlearning
p1556
I2950
sVpolo
p1557
I219
sV69
p1558
I1798
sVpigtails
p1559
I991
sVboat
p1560
I571
sVbetter
p1561
I3336
sVarts
p1562
I1061
sVcycling
p1563
I876
sVcares
p1564
I2567
sVstretch
p1565
I2064
sVtoothpaste
p1566
I688
sVmark
p1567
I1953
sVbreath
p1568
I1976
sVcollided
p1569
I2793
sVdon\u2019t
p1570
I2316
sVhelicopter
p1571
I2943
sVinterviewer's
p1572
I3359
sVengine
p1573
I3072
sVdirection
p1574
I1601
sVshopping
p1575
I3611
sVarmless
p1576
I3464
sVpesticide
p1577
I2947
sVcoughing
p1578
I2693
sVnunchaku
p1579
I2181
sVsquash
p1580
I263
sVshined
p1581
I2921
sVcroquet
p1582
I823
sVbmw
p1583
I3109
sVrubs
p1584
I2562
sVstems
p1585
I3716
sVskiers
p1586
I1831
sVthose
p1587
I1235
sVpilot
p1588
I2773
sVcase
p1589
I2612
sVthese
p1590
I2523
sVsauce
p1591
I2026
sVpreson
p1592
I2620
sVstraighten
p1593
I1318
sVcast
p1594
I2746
sVslippery
p1595
I1806
sVignition
p1596
I2484
sVwrister
p1597
I3287
sVnewspaper
p1598
I2648
sVinterpretive
p1599
I3650
sVsorghum
p1600
I2022
sVperson's
p1601
I635
sVslippers
p1602
I573
sVbathe
p1603
I1561
sVvest
p1604
I397
sVpunches
p1605
I2072
sVcanoe
p1606
I783
sVpark
p1607
I1940
sVsoil
p1608
I1987
sVrubbing
p1609
I1496
sVcoffee
p1610
I1231
sVmiddle
p1611
I986
sVgood
p1612
I1932
sVembrace
p1613
I1551
sVheels
p1614
I1784
sVtrimming
p1615
I2813
sVnets
p1616
I3665
sVearnail
p1617
I1069
sVtechnology
p1618
I3738
sVbullfighting
p1619
I477
sVpruning
p1620
I693
sVmovements
p1621
I1603
sVhelmet
p1622
I83
sVdifferent
p1623
I1434
sVdragging
p1624
I2789
sVparticipant
p1625
I3270
sVdoctor
p1626
I878
sValphabet
p1627
I2380
sVpreparatory
p1628
I1583
sVbowl
p1629
I905
sVpigs
p1630
I2486
sVsame
p1631
I860
sVbows
p1632
I1036
sVpad
p1633
I655
sVaerobics
p1634
I938
sVstepped
p1635
I2037
sVstraitjacket
p1636
I2078
sVpan
p1637
I1465
sVstatus
p1638
I2331
sVsweeper
p1639
I1448
sVoil
p1640
I948
sVbarefoot
p1641
I3005
sVclosest
p1642
I2272
sVcrutches
p1643
I2960
sVapplaud
p1644
I960
sVsquatted
p1645
I2920
sVfoam
p1646
I1669
sVdriver
p1647
I996
sVdrives
p1648
I2482
sVweed
p1649
I964
sVcymbal
p1650
I1136
sVpersons
p1651
I3478
sVrunning
p1652
I202
sVfruit
p1653
I850
sVbarber
p1654
I456
sVadvertisement
p1655
I1082
sVchanging
p1656
I803
sVhost's
p1657
I794
sVcartoon
p1658
I1834
sVweave
p1659
I256
sVband
p1660
I1385
sVbagpipes
p1661
I2360
sVfloor
p1662
I250
sVstrawberry
p1663
I2864
sVwithout
p1664
I510
sVcomes
p1665
I2775
sVbottle
p1666
I1460
sVvery
p1667
I3122
sVentered
p1668
I2733
sVhimself's
p1669
I479
sVbodies
p1670
I1557
sVheaps
p1671
I3151
sVsummer
p1672
I515
sVoutdoor
p1673
I43
sVmanicure
p1674
I742
sVamong
p1675
I3541
sVbeing
p1676
I837
sVdancers
p1677
I329
sVactions
p1678
I2977
sVbacks
p1679
I3698
sVsweeping
p1680
I682
sVkill
p1681
I3466
sVpositions
p1682
I1680
sVtouch
p1683
I1726
sVpolish
p1684
I630
sVrabbits
p1685
I3697
sVspeed
p1686
I517
sVkneeling
p1687
I890
sVcaptured
p1688
I2197
sVblondes
p1689
I302
sVcilantro
p1690
I3118
sVdeath
p1691
I1995
sVdipped
p1692
I2719
sVmedals
p1693
I3642
sVhopping
p1694
I1374
sVexcept
p1695
I3351
sVdesktop
p1696
I603
sVinstrument
p1697
I288
sVpile
p1698
I251
sV4
I2759
sVca
p1699
I2865
sVcareers
p1700
I3358
sVskier
p1701
I127
sVstyles
p1702
I1304
sVaround
p1703
I710
sVgestured
p1704
I2854
sVread
p1705
I1756
sVmop
p1706
I833
sVmow
p1707
I186
sVstools
p1708
I3717
sVdart
p1709
I602
sVdark
p1710
I550
sVgrid
p1711
I2439
sVbandage
p1712
I2731
sVvacuum
p1713
I1171
sVusing
p1714
I501
sVsnare
p1715
I2219
sVgril
p1716
I490
sVrear
p1717
I1468
sVfurniture
p1718
I1396
sVblonde's
p1719
I3396
sVbarbells
p1720
I297
sVtowel
p1721
I652
sVspringy
p1722
I1926
sVbracelet
p1723
I926
sVmaintained
p1724
I2945
sVlightning
p1725
I3724
sVfacing
p1726
I2165
sVaudience
p1727
I87
sVfootballs
p1728
I334
sVt
I1296
sVsieved
p1729
I1208
sVserved
p1730
I2067
sVslings
p1731
I2452
sVclap
p1732
I1650
sVauditorium
p1733
I2605
sVsneaker
p1734
I1214
sVhigh-five
p1735
I2506
sVdoll
p1736
I1067
sVcompetition
p1737
I392
sVcowboys
p1738
I1959
sVdiving
p1739
I38
sVwaistlines
p1740
I3734
sVdaytime
p1741
I3319
sVshovels
p1742
I1967
sVryukyu
p1743
I2533
sVwristband
p1744
I927
sVblackboards
p1745
I3604
sVarriving
p1746
I2704
sVtube
p1747
I1240
sVcleanser
p1748
I1657
sVstops
p1749
I2294
sVstroking
p1750
I3103
sVthroat
p1751
I2745
sVexit
p1752
I3003
sVsledding
p1753
I3507
sV23rd
p1754
I2411
sVknife
p1755
I137
sVdoll's
p1756
I3135
sVmeasuring
p1757
I326
sVwheat
p1758
I1914
sVroast
p1759
I1748
sVpower
p1760
I3544
sVraincoat
p1761
I2180
sVseconds
p1762
I426
sVsixth
p1763
I2099
sVnails
p1764
I715
sVseedlings
p1765
I1546
sVcommunicate
p1766
I1679
sVpartner's
p1767
I2425
sViscleaning
p1768
I3579
sVbroken
p1769
I1946
sVuncivilized
p1770
I1166
sVdrums
p1771
I220
sVassemble
p1772
I1593
sVteammate
p1773
I3006
sVthrow
p1774
I918
sVon
p1775
I79
sVstone
p1776
I1848
sVcentral
p1777
I2444
sVpackage
p1778
I1046
sVof
p1779
I179
sVteddy
p1780
I3722
sVfavorite
p1781
I2196
sVfactors
p1782
I3520
sVshrimp
p1783
I2589
sVchop
p1784
I280
sVstand
p1785
I967
sVpockets
p1786
I1668
sVwobble
p1787
I1511
sVdoze
p1788
I1802
sVlantern
p1789
I2358
sVor
p1790
I34
sVroad
p1791
I772
sVbrook
p1792
I3205
sViseating
p1793
I3582
sVmouthpiece
p1794
I2986
sVcurling
p1795
I210
sVweariong
p1796
I3295
sVinstruments
p1797
I374
sVspreading
p1798
I3169
sVrectification
p1799
I3277
sVsplint
p1800
I2895
sVdishevelled
p1801
I3235
sVhairdryers
p1802
I304
sVearring
p1803
I1071
sVbrunette
p1804
I2958
sVheated
p1805
I2053
sVoperator
p1806
I1022
sVyour
p1807
I1864
sVper
p1808
I3668
sVracquet
p1809
I2597
sVgunfight
p1810
I1596
sVher
p1811
I524
sVarea
p1812
I1027
sVthere
p1813
I90
sVsides
p1814
I2516
sVstart
p1815
I713
sVisarranging
p1816
I3577
sVcats
p1817
I316
sVlow
p1818
I1397
sVlot
p1819
I1565
sVcloths
p1820
I3255
sVspringboard
p1821
I797
sVbubble
p1822
I2090
sVcombined
p1823
I3617
sVwashers
p1824
I2511
sVshower
p1825
I2614
sVhard
p1826
I1998
sVcomplete
p1827
I3112
sVchild's
p1828
I597
sVgliding
p1829
I1943
sVpitcher
p1830
I2424
sVeyeliner
p1831
I2020
sVcabinet
p1832
I790
sVwiping
p1833
I2785
sVfunnel
p1834
I2333
sVomelet
p1835
I1315
sVwalkway
p1836
I2984
sVspades
p1837
I3714
sVpitched
p1838
I2711
sVpromote
p1839
I1180
sVwith
p1840
I61
sVspongebob
p1841
I3388
sVpull
p1842
I1350
sVapplying
p1843
I227
sVman\u2019s
p1844
I2315
sVappliance
p1845
I1154
sVrags
p1846
I1966
sVpostures
p1847
I1674
sVdirty
p1848
I1945
sVmopping
p1849
I249
sVgrasp
p1850
I1641
sVgrass
p1851
I618
sVbracelets
p1852
I1455
sVwristbands
p1853
I937
sVwrestlers
p1854
I2002
sVtoilet
p1855
I1182
sVcartons
p1856
I2721
sVvideos
p1857
I1739
sVrapids
p1858
I1525
sVtaste
p1859
I2394
sVmoved
p1860
I2045
sVdeep
p1861
I1409
sVan
p1862
I259
sVtshirt
p1863
I508
sVat
p1864
I382
sVsilver-haired
p1865
I1415
sVwalks
p1866
I2108
sVhimself
p1867
I3116
sVskateboarders
p1868
I2553
sVfilm
p1869
I2442
sVcream
p1870
I1346
sVagain
p1871
I3488
sVsmiling
p1872
I3773
sVyoga
p1873
I1630
sVantenna
p1874
I1174
sVbackpacks
p1875
I2454
sVrubiks
p1876
I353
sVweeded
p1877
I2834
sVrubber
p1878
I1413
sVfield
p1879
I294
sV5
I3106
sVearholes
p1880
I3631
sVweeder
p1881
I2304
sVgambling
p1882
I1341
sVyou
p1883
I1175
sVtrash
p1884
I849
sVmotorcyclists
p1885
I2503
sVsit-ups
p1886
I278
sVparkour
p1887
I1334
sVstudents
p1888
I1255
sVsymbol
p1889
I3356
sVteeth
p1890
I148
sVdrift
p1891
I189
sVm
I2076
sVwhistling
p1892
I857
sVgifts
p1893
I2373
sVpodium
p1894
I3682
sVflattened
p1895
I2770
sVmechanical
p1896
I3071
sVrevolve
p1897
I940
sVpool
p1898
I395
sVlipstick
p1899
I2634
sVbuilding
p1900
I1626
sVridden
p1901
I3392
sVremote
p1902
I2749
sVapplause
p1903
I2725
sVphotos
p1904
I588
sVmask
p1905
I959
sVmash
p1906
I3223
sVscorpion
p1907
I2190
sVmast
p1908
I1652
sVu
I3075
sVdrank
p1909
I2047
sVstarting
p1910
I1417
sVoriginal
p1911
I2581
sVlevers
p1912
I2446
sVall
p1913
I1
sV69th
p1914
I2255
sVchinese
p1915
I78
sVhooked
p1916
I2742
sVbull
p1917
I1751
sVsplitting
p1918
I1403
sVscattered
p1919
I3283
sVladders
p1920
I1895
sVdisc
p1921
I2434
sVbulb
p1922
I2011
sVhandball
p1923
I1097
sVexpressions
p1924
I1752
sVdisk
p1925
I2868
sVchildren
p1926
I319
sVcarpet
p1927
I119
sVmineral
p1928
I3314
sVhunting
p1929
I2538
sVsandbags
p1930
I2771
sVtv
p1931
I1479
sVparticipants
p1932
I3438
sVcombling
p1933
I724
sVto
p1934
I185
sVtail
p1935
I2286
sVprogram
p1936
I1274
sVdressing
p1937
I1387
sVcrimson
p1938
I2071
sVsafety
p1939
I128
sVforce
p1940
I3538
sVwoman
p1941
I46
sVreturned
p1942
I2736
sVsitting
p1943
I393
sVfar
p1944
I1732
sVgrinds
p1945
I739
sVrobes
p1946
I1025
sVfat
p1947
I2398
sVperson\u2019s
p1948
I2455
sVspraing
p1949
I163
sVbalancing
p1950
I225
sVoverturning
p1951
I2985
sVfall
p1952
I407
sVbubbles
p1953
I1610
sVlubrication
p1954
I2310
sVfourth
p1955
I2892
sVwashing
p1956
I165
sVcable
p1957
I2263
sVlawnmower
p1958
I2629
sVlaying
p1959
I118
sVlarge
p1960
I92
sVsang
p1961
I2899
sVsand
p1962
I252
sVadjust
p1963
I1625
sVsaxophone
p1964
I2168
sVsmall
p1965
I1545
sV20th
p1966
I1435
sVstill
p1967
I2133
sVass
p1968
I2031
sVcookies
p1969
I368
sVfence
p1970
I592
sVtea
p1971
I3143
sVropewalking
p1972
I3316
sVskin
p1973
I1119
sVgrabs
p1974
I2953
sVknitted
p1975
I2995
sVzero
p1976
I1514
sVdisplays
p1977
I3627
sVpass
p1978
I1701
sVcasual
p1979
I3522
sVribbon
p1980
I1958
sVchalk
p1981
I2226
sVwhat
p1982
I285
sVstood
p1983
I751
sVclock
p1984
I3288
sVdeeply
p1985
I1820
sVdribbling
p1986
I3429
sVdirt
p1987
I3503
sVstool
p1988
I1114
sVracing
p1989
I75
sVguns
p1990
I1814
sVcontrast
p1991
I3289
sVmovement
p1992
I1276
sVtattoos
p1993
I527
sVoutgoing
p1994
I3437
sVfull
p1995
I3063
sVreparing
p1996
I135
sVloose
p1997
I1704
sVcomponent
p1998
I2437
sV21st
p1999
I2312
sVsurfer
p2000
I844
sVsqueezed
p2001
I2738
sVtracks
p2002
I357
sVoperating
p2003
I499
sVtrunk
p2004
I2682
sVwhite-bearded
p2005
I2419
sVsurfed
p2006
I2999
sVstrong
p2007
I1133
sVarena
p2008
I2220
sVcolored
p2009
I2413
sVahead
p2010
I3549
sVdifficulty
p2011
I2339
sVstretching
p2012
I1809
sVwelded
p2013
I2017
sVcucumbers
p2014
I3216
sVspotlight
p2015
I1890
sVsoldier
p2016
I2139
sVamount
p2017
I2241
sVgray-blue
p2018
I2557
sVgymnasiums
p2019
I359
sVpick
p2020
I939
sVaction
p2021
I1190
sVtechnique
p2022
I3084
sVfamily
p2023
I931
sVclapping
p2024
I1495
sVhigh-elastic
p2025
I2565
sVindoors
p2026
I16
sVrefitting
p2027
I3760
sVappliances
p2028
I1715
sVtoys
p2029
I440
sVpulls
p2030
I2607
sVsuits
p2031
I1354
sVarmed
p2032
I1499
sVeye
p2033
I1430
sVtakes
p2034
I587
sVwiped
p2035
I2801
sVtwo
p2036
I536
sVuphill
p2037
I3004
sVsawdust
p2038
I2987
sVtacks
p2039
I3456
sVcall
p2040
I2680
sVcharacteristics
p2041
I3353
sVtaken
p2042
I520
sVraft
p2043
I3114
sVstanded
p2044
I3247
sVwipes
p2045
I1813
sVmore
p2046
I2005
sVhorses
p2047
I341
sVflat
p2048
I1343
sVdiamond
p2049
I3241
sVdoor
p2050
I606
sVbumped
p2051
I2744
sVimmersion
p2052
I2179
sVspiting
p2053
I3077
sVwaxed
p2054
I2997
sVfaucet
p2055
I1427
sVtested
p2056
I2917
sVflag
p2057
I763
sVdooe
p2058
I1562
sVcontrolling
p2059
I2944
sVstick
p2060
I458
sVlemons
p2061
I1176
sVthrowers
p2062
I3625
sVmounted
p2063
I1393
sVwaxes
p2064
I3730
sVwrestled
p2065
I2880
sVgrill
p2066
I2229
sVkeeping
p2067
I3306
sVinclude
p2068
I3203
sVtake-off
p2069
I1827
sVbystanders
p2070
I2585
sVsleeveless
p2071
I1134
sVinstalling
p2072
I2563
sVintercepted
p2073
I2955
sVguards
p2074
I1632
sVsanming
p2075
I3547
sVpressing
p2076
I2673
sVwrestler
p2077
I979
sVlearn
p2078
I3273
sVwoodcutter
p2079
I998
sVmale
p2080
I491
sVbeautiful
p2081
I1431
sVchallenging
p2082
I1338
sVpusher
p2083
I3757
sVsunscreen
p2084
I228
sVstates
p2085
I1961
sVpushed
p2086
I1861
sViscatching
p2087
I3578
sVcows
p2088
I317
sVsharp
p2089
I3157
sVpong
p2090
I2210
sVswung
p2091
I2115
sVdress
p2092
I77
sVbonded
p2093
I2843
sVrun-up
p2094
I869
sVbeef
p2095
I2131
sVcourt
p2096
I80
sVgoal
p2097
I743
sVcheering
p2098
I1494
sVstripe
p2099
I2213
sVglowing
p2100
I2747
sVmoves
p2101
I3090
sVextinguished
p2102
I1458
sVlorgan
p2103
I1234
sVblond-haired
p2104
I2200
sVstir
p2105
I1269
sVunclothed
p2106
I759
sVcompeted
p2107
I3078
sVwaved
p2108
I1005
sVrecording
p2109
I2320
sVplant
p2110
I1093
sVsandwich
p2111
I1091
sVbags
p2112
I1807
sVcountryside
p2113
I3138
sVholders
p2114
I3708
sVcatalog
p2115
I2449
sVjustin
p2116
I2193
sVlighting
p2117
I2447
sVblood
p2118
I1772
sVwaves
p2119
I1329
sVhorizontal
p2120
I194
sVflexible
p2121
I1947
sVa
I30
sVshort
p2122
I48
sVcoat
p2123
I447
sVscoreboards
p2124
I3596
sVauthor
p2125
I990
sVeats
p2126
I1034
sVvolleyball
p2127
I159
sVshore
p2128
I2167
sVbroadcasting
p2129
I402
sVsnowing
p2130
I3762
sVwrench
p2131
I2118
sVegg
p2132
I1892
sVplaying
p2133
I11
sVrecite
p2134
I3495
sVrounded
p2135
I3615
sVhelp
p2136
I1380
sVhandlebars
p2137
I1855
sVpant
p2138
I105
sVstepper
p2139
I1919
sVcyclists
p2140
I2727
sVinstalled
p2141
I2436
sVdisabled
p2142
I1220
sVresorts
p2143
I292
sVattitude
p2144
I2244
sVpaper
p2145
I155
sVthrough
p2146
I1889
sVbrim
p2147
I3743
sVcyan
p2148
I1937
sVhelm
p2149
I3532
sVclarinet
p2150
I2992
sVdecorating
p2151
I806
sVgray-haired
p2152
I2254
sVstyle
p2153
I898
sV20
p2154
I2505
sV21
p2155
I984
sV22
p2156
I2627
sV23
p2157
I1013
sVblacks'man
p2158
I3395
sV28
p2159
I1016
sV29
p2160
I1012
sVmattress
p2161
I1051
sVlate
p2162
I2524
sVresort
p2163
I2257
sVdetected
p2164
I3086
sVovercoats
p2165
I1636
sVspeech
p2166
I1444
sVarrange
p2167
I1970
sVmight
p2168
I867
sVcrawls
p2169
I2792
sVdolls
p2170
I1842
sVyi
p2171
I2490
sVsomeone
p2172
I1921
sVsisters
p2173
I2555
sVunrolled
p2174
I3028
sVfood
p2175
I493
sVpingpong
p2176
I414
sVreflected
p2177
I3480
sVwalls
p2178
I1666
sVskipper
p2179
I3331
sVweeds
p2180
I3180
sVfoot
p2181
I766
sVshort-haired
p2182
I2400
sVspeculate
p2183
I1369
sVbigger
p2184
I1467
sVinstructions
p2185
I3298
sVslipper
p2186
I2281
sVpregnant
p2187
I538
sValways
p2188
I3337
sVkayaking
p2189
I180
sVswimsuit
p2190
I562
sVtear
p2191
I1916
sVstopped
p2192
I2114
sVpink-haired
p2193
I2142
sVdie
p2194
I1527
sVfound
p2195
I2730
sVisfrying
p2196
I3583
sVbiscuits
p2197
I3129
sVleveled
p2198
I3149
sVchipping
p2199
I3207
sVsweatpants
p2200
I2187
sVbarrels
p2201
I298
sVharm
p2202
I3543
sVeveryone
p2203
I1574
sVweight
p2204
I2396
sVhouse
p2205
I657
sVfish
p2206
I722
sVsoapy
p2207
I1662
sVtighten
p2208
I1725
sVfinish
p2209
I2713
sVfist
p2210
I1742
sVscratching
p2211
I3740
sVoperation
p2212
I211
sVbieber\u2019s
p2213
I2195
sVevent
p2214
I1280
sVbraided
p2215
I1361
sVharp
p2216
I2376
sVflower
p2217
I1074
sVdivide
p2218
I3616
sValcohol
p2219
I1559
sVblacks
p2220
I301
sVscoops
p2221
I1029
sVpastries
p2222
I3115
sVstudying
p2223
I3017
sVacting
p2224
I2556
sVhealth
p2225
I452
sVhill
p2226
I1244
sV7
I1437
sVprint
p2227
I3162
sVironed
p2228
I1406
sVoccurs
p2229
I1184
sVsalute
p2230
I2898
sVsunblock
p2231
I1977
sVdrink
p2232
I865
sVcrouched
p2233
I3049
sVdrifting
p2234
I28
sVroofs
p2235
I1869
sVsingle-barreled
p2236
I1209
sVcombed
p2237
I1045
sVguess
p2238
I3328
sVbulls
p2239
I69
sVhouses
p2240
I343
sVreason
p2241
I2501
sVbasketball
p2242
I274
sVcookie
p2243
I1295
sVmembers
p2244
I1898
sVput
p2245
I719
sVteach
p2246
I1364
sVash
p2247
I3672
sVbeginning
p2248
I383
sVtemperature
p2249
I3735
sVthrown
p2250
I668
sVcheers
p2251
I1824
sVpairs
p2252
I362
sVdishwashes
p2253
I3626
sVbenefits
p2254
I556
sVthread
p2255
I1905
sVreporter's
p2256
I786
sVwoven
p2257
I3171
sVwoman's
p2258
I539
sVcar's
p2259
I1173
sVcaption
p2260
I612
sVamerican
p2261
I989
sVbeggars
p2262
I3599
sVbumper
p2263
I241
sVsnowboarding
p2264
I2883
sVcastle
p2265
I2604
sVblush
p2266
I1505
sVfallen
p2267
I792
sVthrows
p2268
I1461
sVpaving
p2269
I3102
sVfeed
p2270
I1865
sVcoloring
p2271
I3036
sVstatue
p2272
I2618
sVslipped
p2273
I2113
sVfeel
p2274
I2677
sVknocking
p2275
I3173
sVnumber
p2276
I863
sVfancy
p2277
I1259
sVfeet
p2278
I843
sVdust
p2279
I1614
sVbrave
p2280
I3177
sVdone
p2281
I1770
sVelk
p2282
I2964
sVclimbing
p2283
I200
sVironing
p2284
I271
sVcups
p2285
I327
sVwhite-skinned
p2286
I2224
sVvilla
p2287
I1398
sVrazor
p2288
I1320
sVhorse
p2289
I85
sVheads
p2290
I1357
sVbeating
p2291
I2963
sVneeded
p2292
I3623
sVintroduction
p2293
I2753
sVtwenty
p2294
I2954
sVhangs
p2295
I2191
sVpaint
p2296
I633
sV180
p2297
I2029
sVrobe
p2298
I3364
sVthrower
p2299
I3133
sVpassed
p2300
I2974
sVfingernail
p2301
I3420
sVhurdling
p2302
I2969
sVbanana
p2303
I2881
sVstore
p2304
I1131
sVattendants
p2305
I3622
sVbowed
p2306
I1678
sVselling
p2307
I3183
sVrelationship
p2308
I873
sVbehind
p2309
I756
sVneedle
p2310
I3137
sVinterviewee
p2311
I599
sVinterviewed
p2312
I370
sV275th
p2313
I3350
sVwhetstone
p2314
I2261
sVpart
p2315
I1109
sVdemonstrations
p2316
I3470
sVrelationshio
p2317
I540
sVshrimps
p2318
I1206
sVstairs
p2319
I1115
sVstirs
p2320
I2786
sVsurfboard
p2321
I2356
sVoutdoore
p2322
I3433
sVkind
p2323
I554
sVwaterproofing
p2324
I3560
sVperformers
p2325
I2507
sVdouble
p2326
I3170
sVdant
p2327
I3746
sVgrey
p2328
I411
sVphotographing
p2329
I3764
sVcolander
p2330
I2266
sVbride
p2331
I2385
sVstall
p2332
I1252
sVcuff
p2333
I1267
sVoutdoors
p2334
I17
sVpolishing
p2335
I183
sVcolour
p2336
I598
sVcleaner
p2337
I1172
sVuniforms
p2338
I1765
sVrefrigerators
p2339
I3701
sVleft-handed
p2340
I2830
sVjuice
p2341
I852
sVmuscles
p2342
I3511
sVblond
p2343
I47
sVcleaned
p2344
I2012
sVlid
p2345
I1450
sVlie
p2346
I950
sVrower
p2347
I2784
sVbuilt
p2348
I2897
sVdancing
p2349
I27
sVseld
p2350
I814
sVpajamas
p2351
I2474
sVcave
p2352
I1931
sVofficers
p2353
I3694
sVcamouflage
p2354
I985
sVcouch
p2355
I1037
sVlit
p2356
I2109
sVliu
p2357
I1110
sVrowed
p2358
I2766
sVlifts
p2359
I2103
sVlip
p2360
I1711
sVsandwiches
p2361
I813
sVfinding
p2362
I2750
sVcommentary
p2363
I2212
sVgym
p2364
I2035
sVtransparent
p2365
I3166
sVkneecap
p2366
I1284
sVplay
p2367
I191
sVadded
p2368
I1837
sVelectric
p2369
I1201
sVblackboard
p2370
I1084
sVeggs
p2371
I1899
sVflute
p2372
I610
sVme
p2373
I2512
sVprosthetic
p2374
I2935
sVmost
p2375
I1290
sVsponsored
p2376
I1475
sVeaten
p2377
I3425
sVdarts
p2378
I526
sVmachete
p2379
I1370
sVmeasured
p2380
I2799
sVhad
p2381
I2757
sVrefrigerator
p2382
I641
sVstands
p2383
I94
sVarchery
p2384
I184
sVreward
p2385
I2438
sVcreamming
p2386
I3311
sVdealers
p2387
I311
sVmobile
p2388
I503
sVperformances
p2389
I3666
sVnail
p2390
I182
sVarchers
p2391
I1550
sVcover
p2392
I1754
sVclean
p2393
I920
sVdonkeys
p2394
I3185
sVweigh
p2395
I1736
sVbarrel
p2396
I777
sVtubes
p2397
I3670
sVlying
p2398
I658
sVdodging
p2399
I1799
sVstones
p2400
I1747
sVgolf
p2401
I3518
sVphenomenon
p2402
I1167
sVgold
p2403
I560
sVcheongsam
p2404
I3317
sVhopper
p2405
I2122
sVbarbell
p2406
I1064
sVhillside
p2407
I3065
sVcolor-haired
p2408
I3365
sVsprayed
p2409
I1993
sVplayinging
p2410
I3432
sVbirthplaces
p2411
I3748
sVfont
p2412
I2299
sVoccupation
p2413
I754
sVinterviewer
p2414
I2980
sVfirewood
p2415
I2302
sVsun-proof
p2416
I2027
sVwaiting
p2417
I3239
sVfailed
p2418
I2939
sVfactor
p2419
I2177
sV8
I1019
sVcircle
p2420
I1628
sVhis
p2421
I114
sVhit
p2422
I1598
sVrose
p2423
I2132
sVdistance
p2424
I1390
sVbend
p2425
I1602
sVexpress
p2426
I663
sVsunny
p2427
I521
sVtrees
p2428
I321
sVwhistle
p2429
I2782
sVbrown-haired
p2430
I2061
sVbatter
p2431
I1791
sVbreast
p2432
I2659
sVcompeting
p2433
I3179
sVduring
p2434
I139
sVbeards
p2435
I2453
sVsill
p2436
I2237
sVhim
p2437
I2184
sVmerchandise
p2438
I2852
sVenemy
p2439
I2948
sVcatches
p2440
I2772
sVgels
p2441
I1764
sVmotorcycles
p2442
I356
sVsleeve
p2443
I112
sVbadge
p2444
I1425
sVtracksuit
p2445
I3345
sVremove
p2446
I1316
sVbird
p2447
I2951
sVdismounted
p2448
I2692
sVgloves
p2449
I120
sVcommon
p2450
I2330
sVactivity
p2451
I203
sVconversation
p2452
I2934
sVriver
p2453
I769
sVengraved
p2454
I3695
sVmouthwash
p2455
I628
sVbars
p2456
I193
sVset
p2457
I1710
sVart
p2458
I3000
sVping-pong
p2459
I3238
sVthrowing
p2460
I64
sVbrake
p2461
I3096
sVuses
p2462
I3167
sVsex
p2463
I3262
sVsee
p2464
I2662
sVdefense
p2465
I1952
sVbare
p2466
I2541
sVare
p2467
I0
sVsea
p2468
I644
sVbartender's
p2469
I2199
sVtransportation
p2470
I912
sVarm
p2471
I153
sVsportswear
p2472
I1105
sVknees
p2473
I1612
sVpractice
p2474
I1238
sVpictures
p2475
I413
sVplease
p2476
I3327
sVkid's
p2477
I784
sVplush
p2478
I2487
sVfans
p2479
I3634
sVwon
p2480
I727
sVprobably
p2481
I1330
sVburned
p2482
I2395
sVhairs
p2483
I3643
sVkneel
p2484
I971
sVblow
p2485
I1376
sVlatin
p2486
I2353
sVsold
p2487
I3458
sVoutfit
p2488
I2685
sVspray
p2489
I820
sVsucceed
p2490
I3497
sVdealer's
p2491
I1142
sVzipper
p2492
I3136
sVinertia
p2493
I3759
sVboth
p2494
I2408
sV10th
p2495
I2162
sVlast
p2496
I842
sVslogans
p2497
I1996
sVconnection
p2498
I2332
sV54th
p2499
I2188
sVboxers
p2500
I1957
sVlash
p2501
I1466
sVvault
p2502
I711
sVprotector
p2503
I2566
sVwhole
p2504
I2800
sVmodification
p2505
I3758
sVoars
p2506
I1760
sVburnished
p2507
I2595
sVcakes
p2508
I218
sVflier
p2509
I2981
sVdanced
p2510
I720
sVpoint
p2511
I968
sVsimple
p2512
I3301
sVsweet
p2513
I2570
sVeach
p2514
I1552
sVsweep
p2515
I972
sVdances
p2516
I1032
sVdancer
p2517
I586
sVpeeled
p2518
I2910
sVhovercraft
p2519
I3256
sVbelt
p2520
I776
sVroofing
p2521
I3259
sVweaving
p2522
I3240
sVraise
p2523
I936
sVbackpacker
p2524
I1001
sVstamp
p2525
I1787
sVcurve
p2526
I3060
sVteacher
p2527
I1476
sVhitting
p2528
I1035
sVran
p2529
I1325
sVcomplicated
p2530
I3251
sVmake-up
p2531
I1793
sVbrick
p2532
I3477
sVtyres
p2533
I3104
sVreferee
p2534
I589
sVcombing
p2535
I2346
sVpedals
p2536
I2996
sVfire
p2537
I1090
sVwhat's
p2538
I546
sVgas
p2539
I1901
sVelse
p2540
I2687
sVracer
p2541
I2820
sVsleeves
p2542
I26
sVneckties
p2543
I1305
sVtug-of-war
p2544
I1058
sVrocking
p2545
I2601
sVplants
p2546
I1639
sVpierce
p2547
I1429
sVfur
p2548
I605
sVlook
p2549
I1116
sVhostess
p2550
I1445
sVraw
p2551
I1714
sVballoons
p2552
I3371
sVstraight
p2553
I498
sVbatch
p2554
I997
sVhorseshoe
p2555
I2889
sVrope
p2556
I283
sVwhile
p2557
I1053
sVkick
p2558
I1633
sVbehavior
p2559
I2340
sVleaning
p2560
I1038
sVanimated
p2561
I3342
sVmoustache
p2562
I828
sVpack
p2563
I818
sVswim
p2564
I569
sVbacking
p2565
I2292
sVbinding
p2566
I3536
sVtests
p2567
I3493
sVducks
p2568
I332
sVdecoration
p2569
I2148
sVreads
p2570
I3189
sVbarreled
p2571
I3755
sVtriple
p2572
I2542
sVseen
p2573
I2554
sVready
p2574
I1671
sVrid
p2575
I1381
sVwriggles
p2576
I2476
sVaudi
p2577
I3108
sVchurn
p2578
I1927
sVitaly
p2579
I3414
sVshirt
p2580
I103
sVbelong
p2581
I914
sVkimono
p2582
I2471
sV9
I1020
sVtight-fitting
p2583
I2527
sVhigher
p2584
I2073
sVsell
p2585
I2362
sVused
p2586
I133
sVknitting
p2587
I731
sVisshabu
p2588
I3589
sVmountain
p2589
I1245
sVkeys
p2590
I1101
sVgolden-haired
p2591
I2248
sVleopard
p2592
I3161
sVcement
p2593
I1094
sVmoving
p2594
I1915
sVcleaning
p2595
I150
sVrecall
p2596
I1382
sVstack
p2597
I2728
sVescalator
p2598
I3391
sVlacrosse
p2599
I2827
sVsumo
p2600
I381
sVlower
p2601
I1825
sVnoodle
p2602
I2619
sVolder
p2603
I1144
sVbouncer
p2604
I2335
sVpicks
p2605
I1459
sVperson
p2606
I31
sVcheer
p2607
I961
sVedge
p2608
I2724
sVflags
p2609
I3637
sVlandmark
p2610
I2303
sVentry
p2611
I2470
sVbounced
p2612
I2717
sVeyeglasses
p2613
I1218
sVfacial
p2614
I1656
sVred-haired
p2615
I2415
sVcuboid
p2616
I2282
sVlong-haired
p2617
I2074
sVbackflip
p2618
I2349
sVshape
p2619
I891
sVcircling
p2620
I2966
sVworld
p2621
I3261
sVjumpsuit
p2622
I582
sVtables
p2623
I433
sVcut
p2624
I714
sVsmearing
p2625
I3069
sVcup
p2626
I464
sVlady
p2627
I469
sVworkers
p2628
I2421
sVdanger
p2629
I2334
sVexercising
p2630
I2933
sVsource
p2631
I1292
sVcue
p2632
I1753
sVexcavators
p2633
I3633
sVkites
p2634
I350
sVcrying
p2635
I1923
sVdesk
p2636
I2569
sVacrobatics
p2637
I1422
sVcurettage
p2638
I1727
sVbuild
p2639
I815
sVcordon
p2640
I2147
sVisthrowing
p2641
I3591
sVbig
p2642
I1227
sVskateboards
p2643
I375
sVguesswork
p2644
I2905
sVbib
p2645
I2534
sVsharpener
p2646
I2872
sVdangerouse
p2647
I3561
sVgame
p2648
I44
sVconductors
p2649
I3354
sVshading
p2650
I1150
sVbit
p2651
I2732
sVsharpened
p2652
I2998
sVwings
p2653
I3089
sVknock
p2654
I1228
sVtinkered
p2655
I3033
sVrotate
p2656
I1664
sVvests
p2657
I305
sVstylist
p2658
I978
sVshaped
p2659
I1230
sVdisks
p2660
I1745
sVglove
p2661
I637
sVchorus
p2662
I3471
sVsleds
p2663
I3010
sVcontinue
p2664
I428
sVcrawled
p2665
I3053
sVsleigh
p2666
I2900
sVsaddled
p2667
I2904
sVclipping
p2668
I805
sVgardening
p2669
I1416
sVparade
p2670
I2379
sVbrakes
p2671
I1724
sVcourse
p2672
I3499
sVyellow-red
p2673
I2144
sVtowed
p2674
I1994
sVcreation
p2675
I2952
sVsome
p2676
I1833
sVback
p2677
I1132
sVphone
p2678
I449
sVmartial
p2679
I1060
sVlips
p2680
I1560
sVpalm
p2681
I1870
sVcow's
p2682
I3428
sVornaments
p2683
I3506
sVmirror
p2684
I892
sVcandle
p2685
I2110
sVsheared
p2686
I2839
sVpale
p2687
I3531
sVlifebuoy
p2688
I3460
sVcanadians
p2689
I3613
sVjewelry
p2690
I3505
sVpet
p2691
I511
sVsinging
p2692
I3451
sVnosing
p2693
I3571
sVbenefit
p2694
I579
sVfinge
p2695
I2674
sVprop
p2696
I3378
sVcompetitions
p2697
I3526
sVhairband
p2698
I945
sVpen
p2699
I141
sVsneakers
p2700
I884
sVrivers
p2701
I3702
sVleftmost
p2702
I1003
sVmachine's
p2703
I1934
sVnose
p2704
I504
sVbe
p2705
I910
sVcameraman
p2706
I3612
sVmeasures
p2707
I3111
sVrun
p2708
I934
sVrub
p2709
I1555
sVbartender
p2710
I1981
sVjumps
p2711
I1004
sVcostumes
p2712
I2519
sVstep
p2713
I1379
sVtaxiing
p2714
I2756
sVvolleyballs
p2715
I442
sVtabbing
p2716
I2543
sVby
p2717
I394
sVcapsized
p2718
I3012
sVshine
p2719
I3024
sVgoods
p2720
I3320
sVhair's
p2721
I3418
sVanything
p2722
I3310
sVcigarette
p2723
I1441
sVcompleting
p2724
I2643
sVfiring
p2725
I3292
sVsurfers
p2726
I432
sVhorse\u2019s
p2727
I2796
sVblock
p2728
I2329
sVrepair
p2729
I276
sVreal
p2730
I2548
sVgarbage
p2731
I615
sVatelete
p2732
I768
sVinto
p2733
I744
sV'table
p2734
I2600
sVgavel
p2735
I2909
sVgoalkeeper's
p2736
I2205
sVdownhill
p2737
I738
sVcouches
p2738
I3619
sVskidding
p2739
I3237
sVrows
p2740
I3704
sVfew
p2741
I3035
sVexposed
p2742
I2916
sVsock
p2743
I1759
sVfast
p2744
I518
sVdribbled
p2745
I2088
sVheadstring
p2746
I2978
sVbridesmaids
p2747
I3607
sVsuit
p2748
I76
sVforward
p2749
I1803
sVrenovation
p2750
I3022
sVspat
p2751
I3105
sVopponent
p2752
I1301
sVnarrator
p2753
I993
sVinvite
p2754
I1607
sVraisins
p2755
I3473
sVt-shirt
p2756
I52
sVboys
p2757
I578
sVupright
p2758
I2023
sVline
p2759
I1703
sVreel
p2760
I2370
sVraising
p2761
I2700
sVposted
p2762
I2235
sVdirected
p2763
I2959
sVtelemobiler
p2764
I2416
sVuv
p2765
I2234
sVup
p2766
I123
sVclips
p2767
I3729
sVwindows
p2768
I1661
sVplanes
p2769
I415
sVbareheads
p2770
I3600
sVwarmer
p2771
I1506
sVswimmerwear
p2772
I3521
sVfried
p2773
I1893
sVclear
p2774
I1884
sVordered
p2775
I2896
sVadults
p2776
I544
sVintroducing
p2777
I2752
sVperosn
p2778
I474
sVseesaw
p2779
I3673
sVsingle
p2780
I1673
sVwarning
p2781
I3324
sVnecks
p2782
I3158
sVchat
p2783
I1823
sVpasture
p2784
I3447
sVrally
p2785
I2008
sVtiling
p2786
I255
sVcotton
p2787
I1877
sVrainbow
p2788
I1225
sVsubmersible
p2789
I1399
sVlemon
p2790
I624
sVpeach
p2791
I3209
sVfixing
p2792
I3087
sVbodybuilder
p2793
I3606
sVscrape
p2794
I1709
sVplugged
p2795
I2104
sVelectrical
p2796
I3343
sVaprons
p2797
I389
sVsails
p2798
I421
sVbrushing
p2799
I147
sVdraw
p2800
I941
sVtrouser
p2801
I63
sVscrub
p2802
I1655
sVcrouching
p2803
I1571
sVpineapple
p2804
I2851
sV265th
p2805
I3349
sVrobots
p2806
I2794
sVprepared
p2807
I3174
sVlens
p2808
I684
sVdrag
p2809
I1582
sVrubbed
p2810
I2867
sVfertilizer
p2811
I2577
sVdesert
p2812
I2269
sVearphones
p2813
I1792
sVmood
p2814
I2458
sVwaterproof
p2815
I2938
sVland
p2816
I2472
sVexpressionless
p2817
I3774
sVpedestrians
p2818
I2514
sVholes
p2819
I1588
sVwalked
p2820
I2106
sVcooked
p2821
I2059
sVwaxing
p2822
I1978
sVbeverage
p2823
I1089
sVweights
p2824
I1349
sVworn
p2825
I1073
sVtwists
p2826
I2829
sVisplaying
p2827
I3587
sVpreheat
p2828
I1672
sVrinse
p2829
I1896
sVtattooing
p2830
I209
sVwrestle
p2831
I1377
sVpaw
p2832
I672
sVsquats
p2833
I1844
sVscooped
p2834
I3184
sVissued
p2835
I2739
sVdoctor's
p2836
I2298
sVresults
p2837
I1158
sVdesserts
p2838
I369
sVsnowmobile
p2839
I2283
sVgo
p2840
I201
sVbait
p2841
I2668
sVdumbbell
p2842
I2814
sVasphalt
p2843
I3519
sVwizard
p2844
I3685
sVyoung
p2845
I2718
sVmower
p2846
I629
sVsqueezing
p2847
I687
sVfrisbees
p2848
I908
sVbrooms
p2849
I3608
sVmowed
p2850
I2907
sVgravel
p2851
I2367
sVfencer
p2852
I3140
sVopponent's
p2853
I631
sVrag
p2854
I1729
sVoutside
p2855
I1026
sVdessert
p2856
I216
sVwave
p2857
I1675
sVspoon
p2858
I1440
sVcrosses
p2859
I2083
sVputting
p2860
I122
sVtwice
p2861
I2751
sVmixing
p2862
I3436
sVpracticing
p2863
I2021
sVdrinking
p2864
I494
sVending
p2865
I2388
sVwipe
p2866
I965
sVtattooist
p2867
I2651
sVposture
p2868
I1250
sVispracticing
p2869
I3588
sVmagic
p2870
I1237
sVannouncing
p2871
I365
sVexits
p2872
I3338
sVuncovering
p2873
I3230
sVgender
p2874
I854
sVbutton
p2875
I3030
sVhaving
p2876
I3244
sVcolors
p2877
I3370
sVtry
p2878
I1763
sVskipped
p2879
I2520
sVrace
p2880
I712
sVrestoring
p2881
I2826
sVteech
p2882
I740
sVdealt
p2883
I2708
sVuesd
p2884
I3765
sVride
p2885
I277
sVovens
p2886
I3712
sVvases
p2887
I3728
sVgymnasts
p2888
I3501
sVbleeding
p2889
I3766
sVwrestling
p2890
I834
sVripped
p2891
I3083
sVboots
p2892
I564
sVstaff's
p2893
I584
sVjump
p2894
I237
sVpaints
p2895
I3669
sVvideo
p2896
I5
sVpicked
p2897
I700
sVgrowing
p2898
I3192
sVwater-absorbing
p2899
I2431
sVspaghetti
p2900
I1124
sVindex
p2901
I1730
sVsausage
p2902
I3546
sVplays
p2903
I976
sVpaintings
p2904
I2259
sVsqueeze
p2905
I1719
sVpaddle
p2906
I632
sVman's
p2907
I625
sVcell
p2908
I3001
sV19th
p2909
I2410
sVpoles
p2910
I2278
sVreferees
p2911
I2001
sVtoenails
p2912
I2232
sVchefs
p2913
I325
sVexercise
p2914
I502
sVbody
p2915
I1197
sVsharks
p2916
I3300
sVfocuses
p2917
I2758
sVpeeler
p2918
I2590
sVdegree
p2919
I3128
sVleg
p2920
I176
sVonion
p2921
I2765
sVgathered
p2922
I2777
sVpushing
p2923
I1050
sVpunch
p2924
I2755
sVdressed
p2925
I2138
sVpacking
p2926
I142
sVdispersontling
p2927
I3217
sVlet
p2928
I2919
sVsink
p2929
I646
sVpancake
p2930
I3296
sVothers
p2931
I473
sVsing
p2932
I1600
sVperforation
p2933
I3257
sVextreme
p2934
I1484
sVcyclist
p2935
I570
sV38
p2936
I1017
sVmottle
p2937
I2622
sVreceive
p2938
I2815
sVinvolved
p2939
I435
sV31
p2940
I1554
sVshuffling
p2941
I3564
sVshades
p2942
I3380
sV36
p2943
I1908
sV34
p2944
I3200
sVproducts
p2945
I1782
sVsword
p2946
I2848
sVclimb
p2947
I1567
sVspices
p2948
I1530
sVmakes
p2949
I851
sVmaker
p2950
I1232
sVinitials
p2951
I2381
sVwig
p2952
I1720
sVclearing
p2953
I2808
sVshovel
p2954
I164
sVapple
p2955
I847
sVheart
p2956
I2086
sVpitch
p2957
I2949
sVwin
p2958
I1481
sVblack-and-white
p2959
I2560
sVmice
p2960
I3663
sVmahjong
p2961
I2574
sVcheerleader
p2962
I880
sVbeckon
p2963
I1749
sVapply
p2964
I946
sVtools
p2965
I348
sVstanding
p2966
I82
sVuse
p2967
I349
sVcheered
p2968
I1543
sVfrom
p2969
I929
sVstream
p2970
I2152
sVusa
p2971
I2703
sVchi
p2972
I377
sVnext
p2973
I1423
sVeleven
p2974
I2976
sVcamera
p2975
I856
sVvehicle
p2976
I3304
sVperple
p2977
I542
sVthemselves
p2978
I1697
sVbalustrade
p2979
I1883
sVblue-haired
p2980
I2250
sVpencil
p2981
I3219
sVjournalists
p2982
I346
sVheadscarves
p2983
I1797
sVstarted
p2984
I705
sVinitial
p2985
I2389
sVclippared
p2986
I1130
sVcarrying
p2987
I988
sVparrots
p2988
I3671
sVrubbish
p2989
I1769
sVbaby
p2990
I775
sVshoelaces
p2991
I1786
sVtearing
p2992
I2858
sVwomen
p2993
I7
sVaccount
p2994
I1920
sVballs
p2995
I296
sVanimals
p2996
I290
sVsalad
p2997
I812
sVthis
p2998
I174
sVathlete
p2999
I10
sVnarrator's
p3000
I795
sVpour
p3001
I1533
sVdusted
p3002
I2884
sVtag
p3003
I3744
sVcrossed
p3004
I2712
sVthin
p3005
I3076
sVdrill
p3006
I1100
sVsmear
p3007
I1717
sVmeet
p3008
I1699
sVdrops
p3009
I2075
sVbiscuit
p3010
I3393
sVperformed
p3011
I1236
sVcontrol
p3012
I1477
sVslid
p3013
I2722
sVtap
p3014
I1629
sVbent
p3015
I1523
sVtar
p3016
I2861
sVmowing
p3017
I197
sVprocess
p3018
I2863
sVrode
p3019
I2689
sVpieces
p3020
I1918
sVhigh
p3021
I236
sVtae
p3022
I2038
sVperformer's
p3023
I3153
sVpulling
p3024
I704
sVsomething
p3025
I1469
sVslip
p3026
I1942
sVwonderful
p3027
I3496
sVrods
p3028
I1830
sVvoice
p3029
I2268
sVskirt
p3030
I489
sVtai
p3031
I376
sVneedlewhat
p3032
I3095
sVpractical
p3033
I3297
sVunited
p3034
I1960
sVshuffled
p3035
I3032
sVsit
p3036
I745
sVonions
p3037
I1894
sVbungee
p3038
I367
sVholds
p3039
I1080
sVhandrails
p3040
I3566
sVcylinder
p3041
I3413
sVlocated
p3042
I1412
sVlamp
p3043
I894
sVnunchakus
p3044
I2870
sVforest
p3045
I3559
sVanimal
p3046
I454
sVsweat
p3047
I2492
sVskated
p3048
I2922
sVbuildings
p3049
I3609
sVhalter
p3050
I2247
sVpeeling
p3051
I1194
sVwallpaper
p3052
I246
sVwristwatch
p3053
I1463
sVdetectors
p3054
I3624
sVmasks
p3055
I1303
sVumbilical
p3056
I2372
sVmixed
p3057
I2125
sVweighed
p3058
I3020
sVsip
p3059
I2056
sVwrist
p3060
I1215
sVrecords
p3061
I2631
sVpuppies
p3062
I3696
sVties
p3063
I1335
sVspelling
p3064
I2558
sVtomato
p3065
I3475
sVchasing
p3066
I1490
sVlight
p3067
I238
sVstraps
p3068
I1621
sVlines
p3069
I942
sVcutlery
p3070
I1963
sVscoop
p3071
I3361
sVt-shirtd
p3072
I3194
sVnecklace
p3073
I472
sVlooking
p3074
I2672
sVmustache
p3075
I125
sVfastest
p3076
I3705
sVignite
p3077
I1691
sVbathing
p3078
I749
sVboxing
p3079
I1568
sVmove
p3080
I1700
sVspatula
p3081
I2457
sVhugged
p3082
I3101
sVmotorcycle
p3083
I525
sVdrifters
p3084
I3630
sVhorns
p3085
I3156
sVtiptoed
p3086
I2095
sVletters
p3087
I2443
sVplayer's
p3088
I1140
sVperfect
p3089
I2096
sVunderwater
p3090
I465
sVouter
p3091
I2586
sVtightrope
p3092
I2336
sVchosen
p3093
I3046
sVbroom
p3094
I593
sVships
p3095
I429
sVwinning
p3096
I1187
sVsquatting
p3097
I1224
sVdegrees
p3098
I2030
sVchoose
p3099
I1681
sVturban
p3100
I2206
sVbackpackers
p3101
I3459
sVorange
p3102
I73
sVseafarer
p3103
I973
sVisdancing
p3104
I3581
sVskilled
p3105
I3280
sVcrash
p3106
I670
sVpure
p3107
I1353
sVguys
p3108
I3335
sVflour
p3109
I1696
sVteam's
p3110
I2307
sVskates
p3111
I1358
sVinnermost
p3112
I2578
sVruns
p3113
I3467
sVship
p3114
I528
sVcutting
p3115
I478
sVsandpaper
p3116
I1665
sVkiss
p3117
I1811
sVhands
p3118
I166
sVfront
p3119
I753
sVbar
p3120
I195
sVrotation
p3121
I2869
sVcage
p3122
I1875
sVday
p3123
I98
sVgrinding
p3124
I2697
sVcoriander
p3125
I3121
sVbartending
p3126
I2221
sVblindfolded
p3127
I457
sVofficer's
p3128
I2314
sVconcave
p3129
I3554
sVslide
p3130
I260
sVweather
p3131
I286
sVphotoes
p3132
I3307
sVpools
p3133
I418
sVmanwear
p3134
I1254
sVtray
p3135
I1706
sVglasses
p3136
I96
sVshowering
p3137
I3080
sVtents
p3138
I3723
sVdoing
p3139
I144
sVstrip
p3140
I2422
sVsportsman
p3141
I982
sVinverted
p3142
I3693
sVsurfboards
p3143
I3302
sVprerson
p3144
I3426
sVbooks
p3145
I1891
sVmeasure
p3146
I129
sVrainy
p3147
I3113
sVgoalkeeper
p3148
I757
sVspecial
p3149
I3367
sVout
p3150
I669
sVmats
p3151
I1631
sVkids
p3152
I1488
sVarmor
p3153
I1902
sVbullfighter
p3154
I3110
sVplayground
p3155
I3448
sVflushing
p3156
I2743
sVcutter
p3157
I2666
sVpurplish
p3158
I3690
sVwindsurfing
p3159
I243
sVred
p3160
I58
sVstare
p3161
I3772
sVshut
p3162
I1873
sVumbrella
p3163
I2467
sVhopscotch
p3164
I3224
sVpours
p3165
I2130
sVutensil
p3166
I3749
sVundressing
p3167
I1999
sVtransfer
p3168
I3739
sVfourteen
p3169
I1944
sVcompletely
p3170
I3515
sVpendant
p3171
I1247
sVattend
p3172
I3340
sVapples
p3173
I3689
sVreporters
p3174
I3385
sVsteering
p3175
I1112
sVretriever
p3176
I1024
sVrepairing
p3177
I169
sVdrowning
p3178
I2279
sVbackwards
p3179
I1604
sVyard
p3180
I1271
sVprepare
p3181
I1605
sVfrying
p3182
I3182
sVspill
p3183
I2811
sVcould
p3184
I3047
sVskateboard
p3185
I266
sVtimer
p3186
I1876
sVtimes
p3187
I1538
sVwinner
p3188
I1063
sVlength
p3189
I1698
sVnailing
p3190
I2369
sVoutsid
p3191
I3225
sVprojectile
p3192
I3130
sVbiting
p3193
I3628
sVcurlers
p3194
I3563
sVvegetables
p3195
I2033
sVscarf
p3196
I161
sVembryo
p3197
I3400
sVscalding
p3198
I2368
sVdemonstrating
p3199
I3469
sVblown
p3200
I675
sVshort-sleeves
p3201
I2806
sVscene
p3202
I170
sVspok
p3203
I3051
sVpuppet
p3204
I2414
sVunhairing
p3205
I3281
sVtaijiquan
p3206
I1367
sVowner
p3207
I889
sVreached
p3208
I2908
sVblows
p3209
I1103
sVshort-sleeved
p3210
I1776
sVhorseman
p3211
I2140
sVbraces
p3212
I1721
sVisjumping
p3213
I3585
sVdoesn't
p3214
I1549
sVancient
p3215
I3769
sVworkbench
p3216
I3412
sVfestival
p3217
I839
sVdata
p3218
I2632
sVlaps
p3219
I1728
sVsystem
p3220
I3594
sVbull's
p3221
I2293
sVtheir
p3222
I379
sVattack
p3223
I1868
sVdecorations
p3224
I1667
sVwrapped
p3225
I1992
sVbunkers
p3226
I3374
sVreally
p3227
I3508
sVfinal
p3228
I1157
sVcabin
p3229
I2253
sVbeard
p3230
I954
sVtrampoline
p3231
I2171
sVheadbands
p3232
I1774
sVstomach
p3233
I3099
sVgear
p3234
I1734
sVshorts
p3235
I37
sVshelf
p3236
I761
sVexplanation
p3237
I746
sVwristing
p3238
I409
sVslides
p3239
I2461
sVbieber
p3240
I2194
sS'UNK'
p3241
I3776
sVherself
p3242
I3164
sVwaist
p3243
I1818
sVsteel
p3244
I1308
sVsucceeded
p3245
I3048
sVbed
p3246
I659
sVfirework
p3247
I3635
sVrock-paper-scissors
p3248
I2550
sVdumb
p3249
I3417
sVsculpture
p3250
I2819
sVtorrent
p3251
I2084
sVdrills
p3252
I3632
sVhairstyle
p3253
I661
sVfalse
p3254
I363
sVclip
p3255
I1331
sVcattle
p3256
I1580
sVtidy
p3257
I1815
sVhairstylist
p3258
I2126
sVrobot
p3259
I2500
sVgentle
p3260
I3123
sVrecommends
p3261
I3568
sVhave
p3262
I22
sVclose
p3263
I1852
sVneed
p3264
I152
sVwristwatches
p3265
I3523
sVdemonstration
p3266
I2296
sVlinked
p3267
I3462
sVmicrophone
p3268
I484
sVsprinkler
p3269
I2561
sVsoak
p3270
I1718
sVskillful
p3271
I1929
sVjerseys
p3272
I2270
sVbilliards
p3273
I822
sVbattles
p3274
I2549
sVmix
p3275
I2678
sVsprinkled
p3276
I2428
sVdemolished
p3277
I3023
sVwhich
p3278
I913
sVtruck
p3279
I2628
sVdonkey's
p3280
I3660
sVsoap
p3281
I952
sVvegetation
p3282
I2172
sVhorse's
p3283
I1954
sVbarber's
p3284
I793
sVwho
p3285
I486
sVscenes
p3286
I3530
sVharmful
p3287
I451
sVconnected
p3288
I2392
sVfencer's
p3289
I3419
sVdevice
p3290
I1078
sVmedal
p3291
I1044
sVwhy
p3292
I933
sVlined
p3293
I2768
sVigniter
p3294
I2305
sVurl
p3295
I3082
sVgather
p3296
I1853
sVstronger
p3297
I1478
sVface
p3298
I533
sVlooked
p3299
I2060
sVlifejackets
p3300
I1266
sVlowered
p3301
I3039
sVnailed
p3302
I1047
sVreferee's
p3303
I640
sVpainting
p3304
I198
sVgoals
p3305
I3641
sVatmosphere
p3306
I2243
sVselection
p3307
I2497
sVhoodies
p3308
I1265
sVkite
p3309
I235
sVtext
p3310
I1428
sVcirculates
p3311
I3334
sVindoor
p3312
I12
sVantelope
p3313
I2156
sVbring
p3314
I581
sVbikes
p3315
I1321
sVparked
p3316
I3107
sVsoldiers
p3317
I576
sVchicken
p3318
I1690
sVbrink
p3319
I3534
sVstaff
p3320
I431
sVpartners
p3321
I1302
sVtaps
p3322
I333
sVfilmed
p3323
I1181
sVgrabbed
p3324
I2019
sVtire
p3325
I804
sVhops
p3326
I3647
sVcombs
p3327
I324
sVjar
p3328
I1273
sVeat
p3329
I1743
sVsurroundings
p3330
I2150
sVscore
p3331
I2552
sVtape
p3332
I2623
sVfuel
p3333
I1968
sVriding
p3334
I310
sVpiano
p3335
I378
sVeighth
p3336
I2626
sVhall
p3337
I3212
sVregularly
p3338
I962
sVcube
p3339
I708
sVhandle
p3340
I1443
sVpets
p3341
I3081
sVwatching
p3342
I88
sVbeat
p3343
I1563
sVmainly
p3344
I2671
sVphotography
p3345
I1677
sVstripes
p3346
I577
sVbear
p3347
I3293
sVact
p3348
I2121
sVeardrop
p3349
I3513
sVbeam
p3350
I226
sVstars
p3351
I3715
sVhostess's
p3352
I3430
sVstriped
p3353
I89
sVchips
p3354
I1199
sVtakahashi
p3355
I2264
sVgray
p3356
I74
sVevolution
p3357
I2383
sVsowing
p3358
I3457
sVorgan
p3359
I3132
sVashtray
p3360
I1867
sVmarried
p3361
I3279
sVmotorboat
p3362
I2324
sVeyebrow
p3363
I981
sVteams
p3364
I434
sVstuff
p3365
I3357
sVshe
p3366
I1843
sVpeoson
p3367
I29
sVfixed
p3368
I2034
sVlooks
p3369
I2025
sVguessing
p3370
I2350
sVshedding
p3371
I1502
sVofficial
p3372
I3405
sVfarthest
p3373
I3662
sVsolo
p3374
I3142
sVbucket
p3375
I594
sVframe
p3376
I1095
sVcuts
p3377
I2094
sVhosting
p3378
I2859
sVcomputer
p3379
I131
sVpowder
p3380
I947
sVskateboarding
p3381
I140
sVracket
p3382
I1470
sVrider's
p3383
I1147
sVkimchi
p3384
I2850
sVpacked
p3385
I3025
sVwire
p3386
I1309
sVrecord
p3387
I2686
sVpattern
p3388
I864
sVchimney
p3389
I3031
sVwritten
p3390
I773
sVclosed
p3391
I2127
sVclothesof
p3392
I836
sVblocked
p3393
I2701
sVpants
p3394
I32
sVsaddle
p3395
I2382
sVopening
p3396
I2231
sVkeg
p3397
I2054
sVbuckets
p3398
I3377
sVdartboard
p3399
I2579
sVbutts
p3400
I1808
sVcourtyard
p3401
I3727
sVkicking
p3402
I1340
sVjob
p3403
I537
sVkey
p3404
I3160
sVgroup
p3405
I2515
sVhits
p3406
I1076
sVdrum
p3407
I71
sVcareer
p3408
I2192
sVtaking
p3409
I49
sVrecorders
p3410
I2513
sVfigures
p3411
I3653
sVcutted
p3412
I3291
sVpassing
p3413
I1039
sVwringer
p3414
I2656
sVjersey
p3415
I1264
sVadjusted
p3416
I2654
sVsubtitle
p3417
I2740
sVwall
p3418
I656
sVremoval
p3419
I2013
sVdenim
p3420
I983
sVspeaker
p3421
I3407
sVwalk
p3422
I412
sVpackaging
p3423
I258
sVjavelin
p3424
I254
sVboater
p3425
I2817
sVlaugh
p3426
I1532
sVcs
p3427
I3450
sVtable
p3428
I264
sVpullover
p3429
I3381
sVhorsehair
p3430
I2825
sVtrays
p3431
I3726
sVpouring
p3432
I2655
sVpackages
p3433
I3667
sVmotorbike
p3434
I3186
sVsecond
p3435
I1056
sVswimmer
p3436
I1057
sVaddition
p3437
I2657
sVit's
p3438
I2588
sVgrindstone
p3439
I1068
sVpolka
p3440
I2182
sVbroadcasts
p3441
I2576
sVchildren's
p3442
I2287
sVboatman
p3443
I2403
sVpoured
p3444
I2042
sVslowly
p3445
I1781
sVlady's
p3446
I523
sVcurtain
p3447
I583
sVshoulders
p3448
I1577
sVfinishes
p3449
I2128
sVpainted
p3450
I734
sVrubble
p3451
I2812
sVflintstone
p3452
I2393
sVclimate
p3453
I3737
sVtieing
p3454
I3284
sVfinished
p3455
I676
sVsausages
p3456
I2767
sVwatches
p3457
I1810
sVcovered
p3458
I1196
sVkicks
p3459
I3037
sVsmoking
p3460
I380
sVoverturn
p3461
I1950
sVtanks
p3462
I3719
sVpainter
p3463
I2478
sVeyelashes
p3464
I364
sVplaid
p3465
I102
sVcouple
p3466
I3231
sVmeitong
p3467
I3678
sVsteep
p3468
I3040
sVrunway
p3469
I642
sVappearance
p3470
I2242
sVas
p3471
I2667
sVvalue
p3472
I1126
sVwill
p3473
I2006
sVwild
p3474
I2375
sVbathtub
p3475
I1951
sVtoothbrushes
p3476
I438
sVcarved
p3477
I2040
sVlayer
p3478
I2587
sValmost
p3479
I1547
sVcoating
p3480
I2716
sVsite
p3481
I1391
sVsurface
p3482
I609
sVheating
p3483
I2351
sVhelped
p3484
I2937
sVtoning
p3485
I1878
sVswinging
p3486
I267
sVturns
p3487
I2065
sVpartner
p3488
I2426
sVsits
p3489
I2069
sVjumper's
p3490
I702
sVtattoo
p3491
I1418
sVkissed
p3492
I2835
sVgrinder
p3493
I1965
sVstadiums
p3494
I3423
sVpit
p3495
I1375
sVballoon
p3496
I1096
sVclinked
p3497
I3054
sVupside
p3498
I2066
sVmember
p3499
I932
sVparts
p3500
I1317
sVtumbling
p3501
I3242
sVdigging
p3502
I2288
sVparty
p3503
I2559
sVgets
p3504
I2087
sVtomatoes
p3505
I2888
sVdifficult
p3506
I181
sVinjured
p3507
I1472
sVbalm
p3508
I1712
sVball
p3509
I437
sVplanting
p3510
I2639
sVabsorb
p3511
I1521
sVbald
p3512
I446
sVeffect
p3513
I868
sVdai
p3514
I3677
sVcoaches
p3515
I322
sVmoustachioed
p3516
I3198
sVflew
p3517
I2049
sVstudent
p3518
I2325
sVgestures
p3519
I1504
sVpedal
p3520
I1203
sVoveralls
p3521
I2941
sVcollar
p3522
I1211
sVidentity
p3523
I1189
sVnumbered
p3524
I2404
sVmech
p3525
I2571
sVoff
p3526
I944
sVcenter
p3527
I565
sVlunch
p3528
I1991
sVi
I3479
sVweapon
p3529
I1327
sVcontest
p3530
I2284
sVwell
p3531
I1705
sVfighting
p3532
I2537
sVswimmer's
p3533
I2326
sVpatterns
p3534
I1286
sVbilliard
p3535
I1155
sVspectator
p3536
I3474
sVenglish
p3537
I611
sVhazard
p3538
I2430
sVposition
p3539
I2112
sVhairdressing
p3540
I2961
sVsensing
p3541
I2927
sVdrawing
p3542
I2345
sVbending
p3543
I2832
sVtaller
p3544
I2440
sVbananas
p3545
I2706
sVcamel
p3546
I399
sVhandof
p3547
I1452
sVdose
p3548
I3125
sVkite-shaped
p3549
I2277
sVfishing
p3550
I156
sVrocked
p3551
I2723
sVskill
p3552
I3574
sVglue
p3553
I617
sVkneepad
p3554
I2306
sVclipper
p3555
I1439
sVwea
p3556
I3383
sVtight
p3557
I1888
sVbell
p3558
I2276
sVsky
p3559
I3266
sVlake
p3560
I1517
sVvide
p3561
I444
sVbench
p3562
I1083
sVdrew
p3563
I3015
sVlattice
p3564
I1102
sVadd
p3565
I1789
sVbook
p3566
I143
sVcosmetics
p3567
I1446
sVclipped
p3568
I2018
sVwet
p3569
I2048
sVski
p3570
I291
sVmatch
p3571
I386
sVoar
p3572
I2583
sVamb
p3573
I1426
sVcrushed
p3574
I1847
sVdryer
p3575
I514
sVfive
p3576
I1489
sV265
p3577
I1014
sVraincoats
p3578
I1735
sVpress
p3579
I1731
sVintersection
p3580
I1152
sVpier
p3581
I3309
sVinsert
p3582
I2653
sVpuppy
p3583
I1688
sVnecessary
p3584
I3756
sVlike
p3585
I902
sVsuccess
p3586
I747
sVchairs
p3587
I318
sVsofa
p3588
I647
sVclown
p3589
I3487
sVloses
p3590
I3375
sVbadminton
p3591
I273
sVhosts
p3592
I342
sVjournalist
p3593
I559
sVlose
p3594
I1544
sVworks
p3595
I1716
sVsoft
p3596
I1122
sVhigh-heeled
p3597
I3453
sVshed
p3598
I2418
sVdrop
p3599
I2477
sVswimsuits
p3600
I1647
sVhair
p3601
I24
sVtreadmills
p3602
I2660
sVgymnastics
p3603
I145
sVflush
p3604
I1686
sVracking
p3605
I2695
sVdrove
p3606
I2846
sVblade
p3607
I3285
sVtransport
p3608
I1177
sVpillows
p3609
I3699
sVhappens
p3610
I667
sVpalying
p3611
I488
sVleaf
p3612
I3127
sVlead
p3613
I1750
sVavoid
p3614
I1659
sVlean
p3615
I1771
sVslipping
p3616
I1938
sVsportsman's
p3617
I648
sV14th
p3618
I2185
sVdetergent
p3619
I955
sVdoes
p3620
I18
sVmasked
p3621
I2160
sVhappend
p3622
I2093
sVscrewed
p3623
I2007
sVearrings
p3624
I111
sVchains
p3625
I1826
sVleader
p3626
I1002
sVpepper
p3627
I2289
sVblowing
p3628
I217
sVcoated
p3629
I2203
sVrefurbishing
p3630
I3573
sVbowling
p3631
I801
sVbuttoned
p3632
I3009
sVhost
p3633
I467
sVlubricate
p3634
I2762
sVpasta
p3635
I2343
sVpaste
p3636
I3093
sVstage
p3637
I81
sVpike
p3638
I2236
sVabout
p3639
I287
sVdrumming
p3640
I673
sVboards
p3641
I1365
sVgetting
p3642
I1509
sVinfrared
p3643
I3208
sVpommel
p3644
I830
sVspilled
p3645
I2763
sVcleans
p3646
I1030
sVlocation
p3647
I1394
sVwhistled
p3648
I683
sVcamels
p3649
I309
sVbeige
p3650
I1851
sVwhistles
p3651
I3556
sVtongue
p3652
I1048
sVintroduced
p3653
I678
sVswimming
p3654
I208
sVown
p3655
I3218
sVpolished
p3656
I838
sVfirstly
p3657
I3271
sVgymnastic
p3658
I406
sVbeard's
p3659
I1486
sVsocks
p3660
I549
sVismaking
p3661
I3586
sVmushrooms
p3662
I2348
sVtableware
p3663
I1260
sVsquare
p3664
I1033
sVbrush
p3665
I253
sVfemale
p3666
I1928
sVroads
p3667
I3502
sVketchup
p3668
I3548
sVswimmers
p3669
I1366
sVpuked
p3670
I2043
sVangler
p3671
I2971
sVvan
p3672
I3303
sVhatat
p3673
I1179
sVelastic
p3674
I1644
sVrushed
p3675
I2640
sVstainless
p3676
I3265
sVbuckle
p3677
I1816
sVperforated
p3678
I3745
sVbasins
p3679
I3601
sVsurfs
p3680
I2397
sVrinsing
p3681
I2873
sVmuch
p3682
I2240
sVinner
p3683
I1239
sVpowdered
p3684
I2451
sVcricket
p3685
I1372
sVbuy
p3686
I3510
sVchatting
p3687
I3172
sVbus
p3688
I2862
sVbrand
p3689
I1474
sVpreparations
p3690
I1859
sVblack-clad
p3691
I3344
sVstrawberries
p3692
I2787
sVrelated
p3693
I3558
sVgranny
p3694
I1185
sVhappenened
p3695
I3434
sVear
p3696
I764
sVfry
p3697
I1622
sVhe
p3698
I718
sVchallenges
p3699
I3246
sVmade
p3700
I701
sVplaces
p3701
I1640
sVwhether
p3702
I3481
sVdangerous
p3703
I178
sVvaulting
p3704
I3686
sVunload
p3705
I3368
sVsmooth
p3706
I1512
sVflip
p3707
I2365
sVplaced
p3708
I2173
sVbelow
p3709
I2175
sVreplay
p3710
I3305
sVmen\u2019s
p3711
I2374
sVcello
p3712
I3159
sVcake
p3713
I495
sVdemonstrate
p3714
I1059
sVpiece
p3715
I1065
sVminutes
p3716
I3664
sVdisplay
p3717
I1684
sVstirring
p3718
I2129
sVobstacles
p3719
I2313
sVskating
p3720
I262
sVlattices
p3721
I3500
sVgarter
p3722
I1070
sVboxer's
p3723
I2275
sVtopless
p3724
I2979
sVsleeved
p3725
I1213
sVink
p3726
I2572
sVshooting
p3727
I496
sVtrailing
p3728
I1339
sVhappen
p3729
I1275
sVlimb
p3730
I2936
sVtaekwondo
p3731
I248
sVno21
p3732
I787
sVpigtail
p3733
I3232
sVingredients
p3734
I1962
sVfencing
p3735
I149
sVguitarist
p3736
I3525
sVboot
p3737
I2956
sV43
p3738
I3201
sV40
p3739
I1146
sVbeauticians
p3740
I1956
sVother
p3741
I874
sVdetails
p3742
I1794
sVbranch
p3743
I730
sVthree-pot
p3744
I1757
sVchatted
p3745
I3044
sVdresses
p3746
I331
sVdresser
p3747
I2748
sVfrisbee
p3748
I614
sVkinds
p3749
I3329
sVplate
p3750
I638
sVclass
p3751
I3282
sVbundle
p3752
I2079
sVfriends
p3753
I1973
sVstirred
p3754
I2041
sVcame
p3755
I2642
sVentertainment
p3756
I2531
sVstrings
p3757
I2968
sVdog's
p3758
I604
sVcompete
p3759
I1332
sVpupil
p3760
I1432
sVrecalled
p3761
I2494
sVyell
p3762
I1989
sVbuoy
p3763
I3055
sVbaked
p3764
I1535
sV8th
p3765
I2163
sa(lp3766
g2467
ag1913
ag732
ag802
ag679
ag2896
ag93
ag2993
ag671
ag1223
ag2999
ag2133
ag3312
ag507
ag19
ag650
ag2026
ag2334
ag3620
ag1278
ag1474
ag50
ag3262
ag1337
ag3601
ag1188
ag2542
ag2349
ag2234
ag3367
aVa
ag2606
ag3394
ag1070
ag1790
ag1021
ag72
ag3235
ag1739
ag1356
ag9
ag1327
ag1066
ag1673
ag2648
ag942
ag1941
ag2343
ag2122
ag3409
ag468
ag410
ag2756
ag240
ag7
ag1160
ag1155
ag609
ag3160
ag1208
ag510
ag1840
ag1227
ag2801
ag2460
ag1102
ag552
ag1437
ag866
ag2239
ag245
ag3407
ag675
ag3102
ag3356
ag1989
ag2748
ag2092
ag1915
ag1775
ag2096
ag3637
ag2966
ag1622
ag369
ag2289
ag456
ag1727
ag3342
ag3353
ag1813
ag1538
ag1960
ag811
ag2383
ag285
ag3136
ag673
ag3123
ag795
ag768
ag513
ag3465
ag2580
ag1406
ag2138
ag589
ag1132
ag1479
ag78
ag163
ag3624
ag2443
ag1105
ag2421
ag798
ag709
ag813
ag1959
ag1927
ag2449
ag439
ag2860
ag2766
ag211
ag3075
ag508
ag1701
ag1939
ag3146
ag263
ag3379
ag632
ag2586
ag926
ag1996
ag51
ag1755
ag548
ag2434
ag3381
ag2699
ag2926
ag3566
ag3139
ag3603
ag981
ag2799
ag1890
ag3735
ag2595
ag1191
ag3264
ag2471
ag447
ag2145
ag3550
ag1054
ag1057
ag2127
ag219
ag3196
ag1040
ag1949
ag2954
ag1956
ag3118
ag735
ag321
ag3177
ag3202
ag1416
ag1323
ag391
ag2998
ag1514
ag2920
ag203
ag3703
ag1779
ag2189
ag3506
ag2390
ag2335
ag2384
ag1934
ag1707
ag972
ag1175
ag1891
ag426
ag2367
ag224
ag2456
ag2120
ag3120
ag669
ag3017
ag3304
ag1262
ag2283
ag2840
ag1652
ag2451
ag22
ag393
ag697
ag451
ag3654
ag2830
ag1795
ag2212
ag477
ag1315
ag1171
ag460
ag2856
ag3628
ag2508
ag1557
ag1771
ag172
ag729
ag612
ag787
ag1950
ag3350
ag1843
ag2084
ag1126
ag1034
ag1107
ag825
ag296
ag1328
ag3309
ag3021
ag2894
ag3067
ag248
ag325
ag2263
ag1228
ag3159
ag112
ag1415
ag3052
ag1459
ag3731
ag1849
ag1662
ag1698
ag1962
ag3665
ag3424
ag2786
ag1659
ag871
ag3423
ag1862
ag3130
ag596
ag3720
ag1580
ag3428
ag864
ag3185
ag3486
ag376
ag155
ag63
ag2284
ag687
ag3591
ag2242
ag680
ag2729
ag2885
ag1886
ag280
ag1784
ag115
ag1475
ag2556
ag168
ag1982
ag3131
ag3639
ag1697
ag791
ag2996
ag3570
ag2143
ag607
ag1879
ag693
ag2995
ag1720
ag2201
ag704
ag992
ag2220
ag1689
ag620
ag1802
ag2657
ag684
ag996
ag405
ag3649
ag3334
ag2387
ag1042
ag1303
ag1512
ag561
ag1817
ag2088
ag3587
ag1926
ag822
ag2428
ag3515
ag613
ag3327
ag2913
ag1757
ag2285
ag1161
ag1677
ag395
ag3746
ag2568
ag3322
ag1728
ag1551
ag388
ag484
ag222
ag1340
ag754
ag2047
ag3592
ag2240
ag1281
ag1550
ag2982
ag494
ag2965
ag2967
ag2634
ag1384
ag602
ag1876
ag1140
ag1461
ag2442
ag2002
ag803
ag2019
ag799
ag402
ag2252
ag3254
ag3464
ag2871
ag593
ag3038
ag1969
ag2838
ag2312
ag1452
ag103
ag734
ag1797
ag2643
ag3031
ag2972
ag3335
ag3222
ag3460
ag2600
ag1864
ag2248
ag196
ag1382
ag3571
ag130
ag1035
ag2797
ag624
ag201
ag1737
ag1943
ag2717
ag1898
ag1004
ag1604
ag763
ag3546
ag1232
ag982
ag2129
ag610
ag88
ag301
ag3658
ag1952
ag853
ag3238
ag665
ag2328
ag3422
ag2475
ag2176
ag2769
ag1553
ag284
ag3133
ag344
ag888
ag2798
ag1158
ag238
ag1400
ag380
ag1762
ag319
ag2664
ag3095
ag539
ag3320
ag2726
ag2623
ag3364
ag2939
ag931
ag3509
ag3476
ag617
ag2029
ag60
ag2715
ag70
ag3561
ag1363
ag3512
ag2123
ag116
ag2678
ag3
ag3287
ag2225
ag158
ag3046
ag431
ag1654
ag3127
ag2060
ag1220
ag1128
ag415
ag969
ag1547
ag2626
ag3090
ag1533
ag3633
ag511
ag2627
ag1345
ag326
ag3073
ag2931
ag2778
ag1376
ag1449
ag1619
ag3115
ag1669
ag1311
ag1185
ag643
ag962
ag3268
ag357
ag3285
ag1086
ag3611
ag3030
ag1716
ag2080
ag74
ag2175
ag2864
ag3713
ag3727
ag1259
ag2553
ag2003
ag1463
ag1714
ag2914
ag2388
ag2704
ag346
ag1078
ag1187
ag1863
ag1391
ag1664
ag2691
ag178
ag336
ag3575
ag1672
ag1156
ag1686
ag2744
ag1019
ag2042
ag2427
ag1014
ag3446
ag1811
ag3083
ag2378
ag1993
ag3114
ag600
ag1026
ag1352
ag1523
ag3298
ag1472
ag1335
ag2036
ag3403
ag2187
ag2258
ag2317
ag1526
ag2977
ag427
ag2776
ag715
ag2538
ag1252
ag76
ag3660
ag1710
ag1222
ag236
ag1216
ag2323
ag591
ag2254
ag1469
ag480
ag3593
ag2403
ag1240
ag2190
ag1265
ag2892
ag3527
ag1071
ag139
ag997
ag2564
ag2935
ag1560
ag1316
ag1602
ag1513
ag877
ag3317
ag3346
ag2757
ag2694
ag1129
ag3314
ag2622
ag3447
ag2893
ag1002
ag2517
ag2034
ag1904
ag2534
ag1362
ag209
ag1970
ag3094
ag3375
ag272
ag983
ag1828
ag2336
ag2311
ag1535
ag1349
ag1709
ag1696
ag3758
ag2548
ag2050
ag471
ag205
ag3482
ag2372
ag3537
ag2260
ag783
ag3748
ag2731
ag536
ag3553
ag1851
ag1517
ag1211
ag1300
ag373
ag1435
ag2790
ag2907
ag1172
ag1028
ag2455
ag2846
ag1684
ag2853
ag2906
ag2296
ag290
ag1601
ag17
ag2661
ag3750
ag53
ag3303
ag2382
ag3469
ag563
ag2468
ag446
ag2929
ag3588
ag3617
ag1324
ag1164
ag586
ag1721
ag420
ag805
ag1633
ag3418
ag2205
ag2398
ag3246
ag685
ag3253
ag189
ag2426
ag1239
ag217
ag1274
ag3610
ag2250
ag3150
ag3106
ag361
ag2832
ag3640
ag106
ag3200
ag3455
ag1169
ag3653
ag1203
ag140
ag136
ag1680
ag3648
ag2808
ag874
ag81
ag2847
ag1566
ag259
ag638
ag1263
ag18
ag1620
ag640
ag62
ag819
ag302
ag663
ag852
ag2897
ag3700
ag3490
ag1036
ag3024
ag2984
ag1366
ag46
ag3339
ag339
ag1703
ag2502
ag2880
ag1815
ag2624
ag1764
ag1394
ag556
ag3698
ag2245
ag2510
ag328
ag2206
ag1333
ag1933
ag1108
ag206
ag2480
ag125
ag1046
ag3743
ag2587
ag1450
ag1520
ag3450
ag1508
ag167
ag218
ag2737
ag1945
ag2882
ag534
ag1674
ag2097
ag2733
ag3036
ag3237
ag3586
ag229
ag3078
ag333
ag1983
ag1487
ag3119
ag2413
ag79
ag2309
ag3148
ag1127
ag2106
ag192
ag3236
ag1072
ag2057
ag3696
ag570
ag2181
ag895
ag2732
ag2453
ag303
ag820
ag1791
ag3390
ag1193
ag2990
ag2520
ag2396
ag83
ag152
ag1284
ag1548
ag1350
ag1606
ag2477
ag870
ag2256
ag3732
ag347
ag1322
ag1832
ag991
ag2267
ag3284
ag1657
ag3000
ag1136
ag1821
ag385
ag202
ag1404
ag3631
ag856
ag1656
ag3325
ag2668
ag2151
ag635
ag651
ag183
ag1110
ag170
ag2997
ag2361
ag2350
ag2639
ag1440
ag959
ag2563
ag1069
ag2489
ag1060
ag3273
ag1582
ag1162
ag906
ag973
ag1024
ag2562
ag165
ag3644
ag1537
ag875
ag1706
ag2890
ag847
ag3392
ag1676
ag3656
ag3217
ag466
ag740
ag2496
ag2278
ag2000
ag1051
ag1037
ag2955
ag892
ag1884
ag1653
ag2949
ag2341
ag1473
ag2874
ag930
ag2975
ag1892
ag1237
ag1256
ag1631
ag1146
ag1413
ag2276
ag3388
ag2232
ag387
ag2168
ag3513
ag2094
ag1244
ag1519
ag762
ag2308
ag3741
ag631
ag1563
ag920
ag1626
ag91
ag2962
ag654
ag123
ag64
ag2700
ag433
ag1386
ag132
ag234
ag3207
ag1687
ag2619
ag2684
ag519
ag3043
ag509
ag1233
ag764
ag2153
ag404
ag145
ag1272
ag3585
ag430
ag816
ag1629
ag478
ag1153
ag2848
ag964
ag2705
ag349
ag2470
ag3278
ag2581
ag1277
ag1502
ag1419
ag1774
ag737
ag2393
ag657
ag622
ag1083
ag603
ag580
ag1723
ag1744
ag1536
ag2969
ag760
ag2023
ag3499
ag3292
ag2708
ag1084
ag2523
ag1853
ag1634
ag2020
ag1897
ag2800
ag3069
ag270
ag3526
ag2698
ag2964
ag3380
ag1640
ag901
ag2346
ag1194
ag3281
ag652
ag3230
ag3619
ag162
ag1489
ag197
ag1905
ag1644
ag2607
ag3338
ag492
ag1649
ag2866
ag975
ag1785
ag2511
ag659
ag416
ag2484
ag2515
ag3103
ag565
ag473
ag2903
ag1213
ag2658
ag2077
ag1359
ag3363
ag3141
ag3420
ag2155
ag2354
ag1611
ag1249
ag2987
ag2261
ag2125
ag1559
ag334
ag2753
ag13
ag767
ag1647
ag2554
ag2079
ag1090
ag10
ag2524
ag3626
ag2702
ag2711
ag2108
ag353
ag1163
ag392
aV1
ag766
aV2
ag2160
ag2157
ag3577
ag65
ag2159
ag2936
ag788
aV8
aV9
ag824
ag1806
ag119
ag3176
ag1946
ag2855
ag1812
ag21
ag2221
ag3646
ag216
ag2516
ag3664
ag2126
ag2528
ag1632
ag2355
ag2560
ag3413
ag175
ag1011
ag1431
ag550
ag3291
ag2237
ag1778
ag3302
ag3652
ag1497
ag2923
ag2161
ag724
ag2557
ag233
ag939
ag3435
ag3436
ag2544
ag3714
ag2679
ag1562
ag769
ag3188
ag2406
ag3715
ag1283
ag1736
ag3439
ag1617
ag3722
ag1803
ag322
ag2825
ag2217
ag776
ag3406
ag1378
ag3290
ag639
ag3039
ag244
ag1655
ag3562
ag2370
ag292
ag1313
ag295
ag97
ag2823
ag2537
ag2111
ag1339
ag2110
ag2593
ag3376
ag3496
ag1923
ag1041
ag161
ag3006
ag2590
ag3564
ag3209
ag1364
ag2472
ag255
ag584
ag463
ag2315
ag2357
ag755
ag3175
ag701
ag1988
ag2319
ag2549
ag1343
ag1367
ag1973
ag1314
ag237
ag3596
ag1017
ag2900
ag1154
ag3472
ag1029
ag796
ag1470
ag2986
ag2304
ag2677
ag2007
ag2071
ag1013
ag1650
ag940
ag524
ag924
ag3088
ag501
ag2491
ag1442
ag2603
ag529
ag3739
ag3383
ag1347
ag29
ag2650
ag1321
ag3580
ag934
ag1845
ag3535
ag608
ag3228
ag2837
ag1212
ag1516
ag207
ag143
ag1269
ag836
ag555
ag1770
ag2402
ag341
ag1245
ag1131
ag1713
ag2337
ag2259
ag1874
ag1883
ag2061
ag3608
ag812
ag3673
ag1839
ag3323
ag1855
ag1410
ag2229
ag3694
ag247
ag3096
ag38
ag3523
ag2021
ag166
ag1465
ag956
ag3051
ag566
ag3458
ag2915
ag1368
ag3354
ag370
ag2369
ag1494
ag3520
ag1354
ag1190
ag2318
ag1064
ag1729
ag2236
ag500
ag3522
ag786
ag3725
ag1734
ag3060
ag1166
ag465
ag2613
aV-
ag2142
ag521
ag986
ag1532
ag3097
ag2788
ag128
ag2642
ag2654
ag1139
ag2659
ag1610
ag2950
ag495
ag2103
ag1587
ag3011
ag2870
ag2474
ag3683
ag1747
ag1173
ag670
ag1482
ag2226
ag2589
ag695
ag3171
ag452
ag833
ag2868
ag424
ag2332
ag82
ag3134
ag1888
ag171
ag1447
ag1310
ag2277
ag3663
ag1048
ag707
ag721
ag3415
ag3308
ag3300
ag2333
ag95
ag2105
ag300
ag3180
ag1174
ag3328
ag1936
ag3729
ag1992
ag1148
ag1253
ag1331
ag2214
ag579
ag1430
ag1374
ag2366
ag1226
ag3534
ag897
ag827
ag515
ag2375
ag421
ag2631
ag839
ag381
ag2243
aVt
ag774
ag977
ag459
ag1152
ag2752
ag3321
ag3055
ag1702
ag2543
ag1338
ag913
ag3244
ag3386
ag453
ag156
ag1302
ag616
ag275
ag1835
ag2446
ag3500
ag1593
ag804
ag2288
ag3315
ag397
ag225
ag313
ag2529
ag422
ag3529
ag1010
ag2119
ag2481
ag3255
ag3759
aV3
ag1887
ag3063
ag1081
ag918
ag2082
ag3728
ag3402
ag1882
ag1121
ag2048
ag692
ag989
ag1870
ag1134
ag649
ag2824
ag1842
ag461
ag979
ag3107
ag2031
ag262
ag851
ag2290
ag3111
ag49
ag1504
ag2215
ag1050
ag1518
ag2246
ag3641
ag3669
ag3206
ag910
ag2183
ag2379
ag792
ag3685
ag644
ag1694
ag3495
ag2485
ag2831
ag41
ag2713
ag2136
ag2575
ag2596
ag773
ag988
ag1660
ag594
ag1937
ag954
ag1031
ag2424
ag3481
ag11
ag2063
ag3647
ag1192
ag1718
ag1818
ag2287
ag2789
ag1373
ag927
ag1122
ag1918
ag1320
ag1116
ag2228
ag1067
ag896
ag1861
ag1388
ag714
ag3042
ag1878
ag1255
ag1865
ag2669
ag1910
ag3491
ag522
ag1234
ag317
ag2637
ag2973
ag1387
ag2444
ag3573
ag2055
ag3310
ag2547
ag2033
ag2081
ag3760
ag971
ag1623
ag1966
ag1342
aV7
ag881
ag3555
ag2858
ag2723
ag1076
ag3340
ag2166
ag2550
ag3567
ag1117
ag1639
ag1341
ag2345
ag911
ag3547
ag30
ag1521
ag1852
ag1353
ag703
ag2102
ag2605
ag1666
ag2268
ag748
ag3053
ag998
ag1637
ag2501
ag2184
ag1717
ag3025
ag3382
ag1493
ag3507
ag359
ag3689
ag2376
ag2527
ag3012
ag3297
ag1931
ag1206
ag2958
ag1201
ag1275
ag2934
ag273
ag3659
ag882
ag3152
ag3576
ag3066
ag1207
ag1199
ag876
ag2098
ag2024
ag1609
ag752
ag844
ag2032
ag48
ag627
ag3371
ag1371
ag3519
ag2266
ag2771
ag157
ag486
ag3642
ag961
ag1787
ag3706
ag948
ag1976
ag365
ag1246
ag3560
ag340
ag470
ag129
ag3511
ag686
ag3015
ag1088
ag1858
ag1505
ag2194
ag1217
ag1276
ag2948
ag1186
ag3426
ag3001
ag1423
ag3764
ag1016
ag390
ag3187
ag533
ag1326
ag863
ag32
ag2968
ag3594
ag1965
ag1765
ag3479
ag253
ag3214
ag2391
ag1613
ag2514
ag309
ag2940
ag2709
ag1385
ag1670
ag741
ag2219
ag2680
ag1603
ag2058
ag3343
ag1422
ag1819
ag1312
ag2947
ag3079
ag1436
ag623
ag2803
ag855
ag213
ag2203
ag1065
ag549
ag3448
ag258
ag1135
ag3256
ag1417
ag2809
ag1628
ag1409
ag872
ag974
ag831
ag2819
ag250
ag1292
ag1403
ag39
ag1772
ag1022
ag314
ag1810
ag1443
ag2422
ag597
ag2932
ag1574
ag2425
ag1621
ag3179
ag3181
ag1491
ag2754
ag122
ag144
ag1953
ag1085
ag2473
ag101
ag2279
ag320
ag55
ag912
ag993
ag1329
ag782
ag3068
ag3697
ag102
ag1541
ag1963
ag1900
ag899
ag2420
ag3014
ag1873
ag3151
ag2074
ag2558
ag335
ag141
ag2165
ag966
ag266
ag2546
ag3701
ag1850
ag475
ag744
ag3674
ag572
ag1271
ag3600
ag545
ag114
ag1732
ag562
ag1908
ag1361
ag1369
ag2802
ag2614
ag1748
ag312
ag3614
ag806
ag2768
ag2207
ag288
ag2656
ag3116
ag2178
ag3224
ag1786
ag1646
ag90
ag2574
ag2828
ag2780
ag1847
ag2857
ag443
ag3345
ag2306
ag1766
ag1682
ag3099
ag283
ag61
ag3717
ag323
ag3604
ag445
ag3583
ag883
ag3318
ag3077
ag378
ag176
ag1453
ag1003
ag3109
ag2978
ag3189
ag3008
ag3080
ag1978
ag1113
ag2759
ag1997
ag3531
ag3135
ag502
ag1077
ag2794
ag2457
ag2360
ag3508
ag506
ag2551
ag2028
ag3595
ag3007
ag3270
ag2905
ag2952
ag3212
ag1205
ag933
ag2671
ag2208
ag1683
ag2638
ag3219
ag2854
ag2901
ag3579
ag1944
ag1492
ag3234
ag3578
ag2395
ag857
ag929
ag1857
ag557
ag1242
ag2210
ag3329
ag1074
ag2660
ag254
ag2400
ag1759
ag2963
ag3613
ag1917
ag1924
ag2632
ag2392
ag965
ag1705
ag3744
ag720
ag2743
ag2506
ag1068
ag1325
ag2878
ag2441
ag2338
ag73
ag885
ag772
ag2989
ag2281
ag3615
ag2118
ag747
ag3232
ag177
ag3210
ag849
ag637
ag628
ag873
ag3445
ag2945
ag564
ag1614
ag160
ag2991
ag2525
ag1420
ag3565
ag1446
ag2431
ag2813
ag2531
ag3742
ag514
ag832
ag2983
ag1558
ag2399
ag297
ag976
ag1788
ag2749
ag94
ag1012
ag1595
ag2112
ag3400
ag2012
ag3457
ag3117
ag294
ag2045
ag1990
ag3257
ag3677
ag308
ag3243
ag147
ag1985
ag1468
ag1230
ag2783
ag2251
ag2601
ag3625
ag2069
ag537
ag476
ag3028
ag1586
ag878
ag2676
ag1658
ag712
ag1510
ag2368
ag633
ag242
ag6
ag243
ag2170
ag3366
ag2833
ag127
ag1059
ag3574
ag1776
ag1251
ag8
ag3650
ag3263
ag3296
ag42
ag2137
ag148
ag771
ag331
ag3690
ag749
ag2086
ag289
ag1218
ag1807
ag2270
ag210
ag3360
ag3223
ag2235
ag2681
ag37
ag364
ag3162
ag953
ag3122
ag3186
ag2787
ag3485
ag190
ag585
ag716
ag1293
ag2979
ag2774
ag179
ag214
ag1360
ag3557
ag2146
ag2015
ag3145
ag2132
ag2773
ag3037
ag1920
ag2829
ag135
ag2244
ag2371
ag784
ag2539
ag3153
ag1490
ag1460
ag2255
ag281
ag1372
ag2943
ag117
ag761
ag667
ag368
ag1544
ag1758
ag2594
ag2191
ag104
ag3020
ag2139
ag2994
ag2172
ag733
ag2635
ag306
ag801
ag1722
ag2578
ag3666
ag3271
ag576
ag2352
ag1612
ag658
ag2703
ag107
ag1049
ag2148
ag3616
ag215
ag1607
ag691
ag3026
ag1829
ag3169
ag1848
ag1769
ag2121
ag664
ag1023
ag3461
ag3475
ag2465
ag1567
ag3283
ag57
ag3740
ag2500
ag1980
ag1738
ag3034
ag2085
ag3734
ag3070
ag1439
ag3493
ag1846
ag1742
ag3333
ag1195
ag2167
ag1478
ag630
ag3753
ag1210
ag134
ag1568
ag2231
ag2822
ag1545
ag1258
ag2710
ag713
ag1198
ag711
ag636
ag182
ag1608
ag26
ag3762
ag1097
ag3528
ag3225
ag2409
ag2674
ag1691
ag2497
ag193
ag1826
ag3167
ag438
ag2911
ag1854
ag935
ag282
ag2046
ag3473
ag3623
ag2785
ag1289
ag389
ag1922
ag2344
ag3419
ag412
ag277
ag407
ag2013
ag3568
ag3324
ag1831
ag2863
ag1600
ag2758
ag1509
ag3369
ag1591
ag2416
ag751
ag2297
ag3098
ag1968
ag1503
ag3195
ag3368
ag2364
ag89
ag1635
ag3022
ag1456
ag3477
ag3754
ag3444
ag3670
ag24
ag1860
ag504
ag1909
ag3569
ag3517
ag843
ag332
ag946
ag1805
ag3397
ag154
ag3059
ag1555
ag1408
ag2821
ag3299
ag2430
ag1231
ag417
ag1565
ag3487
ag3498
ag1730
ag582
ag3489
ag893
ag1938
ag1605
ag2584
ag2617
ag3009
aVm
ag1483
ag1636
ag3752
ag1285
ag626
ag1147
ag2859
ag3251
ag226
ag2956
ag3504
ag2745
ag546
ag1822
ag699
ag481
ag3622
ag3377
ag3086
ag3089
ag251
ag1058
ag1763
ag482
ag746
ag1030
ag2359
ag2795
ag823
ag2820
ag1425
ag1866
ag2356
ag2685
ag5
ag3539
ag2273
ag2192
ag2091
ag528
ag1539
ag2131
ag619
ag568
ag3348
ag2405
ag862
ag919
ag3057
ag3258
ag3391
ag3449
ag3718
ag3165
ag2095
ag2423
ag1967
ag212
ag252
ag1282
ag758
ag2925
ag2016
ag3211
ag850
ag2193
ag1554
ag2673
ag80
ag581
ag2640
ag2569
ag265
ag3330
ag291
ag2970
ag1008
ag1414
ag194
ag3313
ag808
ag1319
ag1044
ag3621
ag1225
ag2495
ag3765
ag1130
ag1726
ag43
ag2128
ag1964
ag503
ag47
ag3231
ag3282
ag3708
ag264
ag3709
ag25
ag2419
ag1167
ag2052
ag1761
ag1579
ag3440
ag485
ag2437
ag3618
ag1379
ag2200
ag2499
ag351
ag1907
ag2295
ag3408
ag2116
ag3240
ag2213
ag1781
ag1688
ag880
ag2469
ag2104
ag858
ag488
ag3629
ag689
ag2736
ag3100
ag184
ag307
ag1543
ag2090
ag890
ag2363
ag2099
ag1305
ag723
ag681
ag1180
ag99
ag1715
ag2008
ag3126
ag1094
ag58
ag2286
ag902
ag1981
ag604
ag605
ag2066
ag947
ag3396
ag2912
ag1370
ag2765
ag2762
ag3638
ag2436
ag770
ag1308
ag3682
ag2017
ag3470
ag3306
ag2144
ag970
ag1047
ag3050
ag2591
ag731
ag2980
ag108
ag621
ag3229
ag2152
ag1914
ag394
ag2163
ag1287
ag2904
ag1334
ag2314
ag742
ag1957
ag3355
ag1529
ag2330
ag980
ag3029
ag2812
ag3272
ag231
ag1642
ag960
ag403
ag3723
ag3558
ag3549
ag2910
ag3178
ag383
ag2186
ag2616
ag2839
ag3530
ag151
ag1935
ag3442
ag3502
ag3627
ag77
ag432
ag2565
ag3221
ag1749
ag409
ag3266
ag278
ag2836
ag2412
ag496
ag817
ag2415
ag2610
ag1881
ag3294
ag3554
ag3110
ag540
ag66
ag1954
ag809
ag1999
ag3719
ag3128
ag1844
ag1570
ag186
ag287
ag487
ag2109
ag1118
ag56
ag887
ag3362
ag3518
ag3533
ag688
ag188
ag2728
ag2450
ag1638
ag2498
ag1834
ag2629
ag2604
ag3092
ag1009
ag571
ag2011
ag2559
ag1392
ag98
ag3635
ag87
ag3542
ag2535
ag535
ag3662
ag2618
ag3370
ag3483
ag1365
ag2486
ag221
ag1183
ag2321
ag936
ag1789
ag434
ag1661
ag1407
ag2585
ag345
ag298
ag3707
ag706
ag2851
ag3198
ag3190
ag2760
ag442
ag3056
ag1893
ag3711
ag3474
ag2216
ag838
ag1531
ag2670
ag1627
ag2951
ag3395
ag3357
ag1542
ag2331
ag1123
ag932
ag2865
ag2985
ag736
ag1007
ag3288
ag3452
ag1859
ag2482
ag2204
ag3680
ag1947
ag1395
ag2182
ag208
ag614
ag3443
ag3524
ag1115
ag943
ag1114
ag2494
ag523
ag2909
ag1754
ag36
ag2009
ag3204
ag2615
ag2764
ag379
ag3598
ag2005
ag1096
ag2628
ag3140
ag454
ag1830
ag1767
ag3488
ag978
ag3276
ag756
ag3538
ag2899
ag615
ag898
ag1921
ag429
ag2141
ag1998
ag2385
ag1711
ag3544
ag560
ag1869
ag3087
ag1777
ag1032
ag1912
ag2117
ag1480
ag2115
ag330
ag3684
ag1731
ag2435
ag1875
ag1948
ag1025
ag3081
ag2814
ag1268
ag730
ag3239
ag865
ag598
ag915
ag490
ag1375
ag3163
ag698
ag137
ag2611
ag2582
ag2816
ag246
ag2351
ag790
ag2576
ag3599
ag3463
ag498
ag530
ag925
ag1648
ag109
ag1596
ag1103
ag1630
ag2478
ag574
ag590
ag2171
ag299
ag3047
ag606
ag3761
ag1448
ag195
ag3307
ag738
ag793
ag3259
ag2241
ag1484
ag1885
ag1286
ag2154
ag1735
ag2325
ag126
ag1257
ag1424
ag1824
ag2373
ag3410
ag2818
ag3405
ag1814
ag815
ag1357
ag2712
ag2879
ag1061
ag917
ag1590
ag2162
ag1393
ag169
ag2583
ag1221
ag551
ag1346
ag3756
ag846
ag1743
ag2645
ag1455
ag1466
ag3532
ag1929
ag928
ag1112
ag2466
ag2572
ag2716
ag1485
ag789
ag778
ag990
ag2730
ag3274
ag3248
ag235
ag3331
ag1868
ag2573
ag2173
ag2224
ag2018
ag3064
ag3503
ag2959
ag3269
ag1584
ag2072
ag28
ag2025
ag2503
ag1564
ag256
ag2636
ag2513
ag3525
ag3726
ag923
ag2961
ag455
ag3441
ag2811
ag3112
ag3399
ag1250
ag1911
ag1501
ag3572
ag727
ag2070
ag3091
ag3478
ag3438
ag1783
ag2918
ag1418
ag12
ag355
ag118
ag2507
ag955
ag1809
ag512
ag587
ag2734
ag2545
ag350
ag85
ag2265
ag1733
ag914
ag2030
ag575
ag848
ag1428
ag457
ag1589
ag1261
ag1825
ag592
ag1296
ag311
ag2272
ag2602
ag1592
ag1184
ag2937
ag3332
ag384
ag1099
ag3336
ag2156
ag3279
ag1958
ag1477
ag3061
ag3218
ag682
ag1899
ag441
ag1062
ag1045
ag111
ag3510
ag3675
ag645
ag3755
ag2724
ag1214
ag418
ag1270
ag677
ag1598
ag1170
ag1500
ag2867
ag1358
ag3582
ag3416
ag3432
ag3414
ag3437
ag348
ag2432
ag3602
ag599
ag2464
ag1260
ag1176
ag1243
ag3157
ag3471
ag2841
ag1038
ag464
ag3344
ag3074
ag2076
ag2695
ag249
ag861
ag2274
ag3275
ag375
ag2040
ag1458
ag2004
ag1399
ag821
ag2488
ag3387
ag2540
ag1290
ag3019
ag1063
ag532
ag2448
ag1578
ag835
ag3605
ag14
ag3124
ag159
ag1499
ag2761
ag3393
ag938
ag2971
ag1746
ag516
ag3545
ag1405
ag2883
ag1125
ag527
ag1838
ag3004
ag2209
ag559
ag86
ag3480
ag2612
ag2845
ag1692
ag541
ag1856
ag3013
ag3551
ag2608
ag1903
ag1145
ag2140
ag2597
ag950
ag2195
ag1712
ag2651
ag1668
ag1053
ag867
ag1942
ag646
ag2001
ag2835
ag3417
ag828
ag1916
ag3156
ag2051
ag1751
ag1594
ag2100
ag3747
ag1902
ag2362
ag2861
ag2777
ag2293
ag1421
ag2924
ag2714
ag2381
ag2917
aV4
ag674
ag1052
ag3634
ag3645
ag653
ag2921
ag2358
ag3456
ag3293
ag884
ag1895
ag1930
ag2440
ag1588
ag241
ag1665
ag968
ag2922
ag367
ag400
ag1434
ag374
ag2429
ag1427
ag2347
ag1833
ag2320
ag3692
ag4
ag1624
ag907
ag1229
ag2169
ag1569
ag2806
ag1298
ag2727
ag1528
ag1043
ag2380
ag2504
ag2035
ag230
ag1355
ag999
ag327
ag3201
ag666
ag2953
ag15
ag497
ag3183
ag3451
ag1615
ag2842
ag2938
ag153
ag3425
ag661
ag3250
ag2541
ag121
ag780
ag676
ag1527
ag3430
ag2881
ag2599
ag1254
ag2826
ag2340
ag1093
ag3543
ag879
ag1877
ag3492
ag68
ag842
ag191
ag2686
ag547
ag174
ag75
ag2093
ag44
ag1525
ag3606
ag366
ag2946
ag726
ag3384
ag2804
ag2438
ag1264
ag1704
ag625
ag138
ag133
ag2992
ag3378
ag479
ag3016
ag3688
ag3018
ag1663
ag1699
ag889
ag2810
ag1925
ag3121
ag3044
ag1027
ag2646
ag3681
ag916
ag1476
ag354
ag204
ag413
ag660
ag2065
ag2303
ag396
ag2264
ag3002
ag753
ag406
ag293
ag3505
ag2555
ag493
ag1462
ag1955
ag223
ag467
ag1800
ag2775
ag2348
ag2230
ag1961
ag2666
ag338
ag668
ag1241
ag2667
ag2644
ag718
ag2850
ag3208
ag2735
ag2518
ag462
ag1530
ag702
ag377
ag437
ag2742
ag2056
ag1444
ag2928
ag1645
ag1581
ag3048
ag544
ag257
ag518
ag1055
ag3541
ag1006
ag458
ag1411
ag719
ag386
ag2630
ag2452
ag2374
ag3730
ag3484
ag2815
ag2418
ag54
ag3521
ag588
ag1571
ag2059
ag1724
ag1020
ag1577
ag2439
ag2957
ag1556
ag2447
ag2675
ag1974
ag2294
ag2073
ag3737
ag342
ag1804
ag2763
ag1643
ag3540
ag800
ag2291
ag2282
ag1295
ag2620
ag1412
ag3757
ag2302
ag1438
ag3671
ag1209
ag1247
ag2300
ag198
ag2974
ag1678
ag2746
ag3724
ag2414
ag2509
ag1168
ag337
ag1836
ag1951
ag1794
ag2038
ag1224
ag781
ag408
ag1304
ag2150
ag279
ag1401
ag1975
ag2536
ag2054
ag2652
ag2006
ag2458
ag2908
ag1552
ag1752
ag2037
ag1641
ag1773
ag1377
ag1204
ag3632
ag2663
ag449
ag2718
ag1389
ag469
ag3563
ag543
ag2223
ag854
ag185
ag3058
ag1432
ag2750
ag3277
ag2719
ag3385
ag16
ag448
ag2174
ag1291
ag2875
ag3389
ag3035
ag2655
ag40
ag2741
ag2271
ag3459
ag1149
ag3301
ag3468
ag745
ag142
ag362
ag3745
ag423
ag3093
ag3184
ag3245
ag2233
ag1202
ag3203
ag187
ag2665
ag3497
ag3763
ag1426
ag315
ag1001
ag96
ag2526
ag1248
ag220
ag1995
ag1396
ag2407
ag1189
ag647
ag840
ag2625
ag705
ag1896
ag1573
ag31
ag1033
aVu
ag3005
ag2053
ag2107
ag92
ag3137
ag3341
ag3295
ag2891
ag2022
ag1467
ag2164
ag2792
ag181
ag2653
ag2101
ag517
ag1200
ag3636
ag267
ag3032
ag2461
ag1351
ag1182
ag3233
ag450
ag3082
ag2269
ag1750
ag2533
ag2751
aV5
ag3316
ag2577
ag1583
ag3154
ag2707
ag1827
ag3147
ag2043
ag2222
ag1867
ag985
ag1690
ag829
ag1330
ag3125
ag1667
ag3260
ag775
ag3548
ag904
ag3612
ag2919
ag2197
ag3192
ag382
ag3359
ag2299
ag1119
ag1756
ag2492
ag2310
ag2113
ag1344
ag2852
ag908
ag3374
ag1971
ag1056
ag1178
ag1087
ag1133
ag474
ag2198
ag886
ag1671
ag1150
ag3023
ag131
ag1464
ag3085
ag2089
ag2782
ag3712
ag3404
ag2592
ag2227
ag994
ag3242
ag1299
ag2365
ag2462
ag110
ag1798
ag2326
ag2257
ag3687
ag2275
ag2807
ag274
ag146
ag2280
ag363
ag2433
ag2180
ag611
ag3182
ag2307
ag2834
ag2394
ag3434
ag743
ag841
ag2570
ag903
ag1402
ag2898
ag845
ag3072
ag984
ag739
ag1179
ag3516
ag1511
ag2944
ag3738
ag569
ag2068
ag905
ag1792
ag818
ag2199
ag3643
ag2791
ag708
ag648
ag3337
ag538
ag1279
ag678
ag2014
ag2927
ag3655
ag2981
ag149
ag489
ag1197
ag1906
ag3164
ag3191
ag957
ag1496
ag1143
ag826
ag2873
ag3466
ag3733
ag794
ag1457
ag1801
ag909
ag2739
ag2459
ag2417
ag2522
ag2049
ag3501
ag71
ag2876
ag757
ag3699
ag2044
ag59
ag1294
ag618
ag2530
ag690
ag268
ag1332
ag1820
ag2519
ag2933
ag1111
ag2521
ag995
ag2621
ag2463
ag425
ag1005
ag3676
ag3559
ag343
ag1092
ag1101
ag1625
ag3657
ag814
ag2078
ag1219
ag358
ag542
ag1799
ag1297
ag3361
ag3105
ag3205
ag3751
ag1919
ag3454
ag3607
ag601
ag1597
ag1984
ag1991
ag656
ag3412
ag2725
ag3347
ag1441
ag1796
ag2930
ag3033
ag2185
ag35
ag2916
ag2512
ag3143
ag3672
ag2976
ag3710
ag2067
ag3132
ag261
ag3581
ag2722
ag2386
ag1000
ag1348
ag1928
ag67
ag1972
ag2404
ag578
ag1741
ag2720
ag868
ag150
ag34
ag2781
ag164
ag1288
ag2476
ag2238
ag3749
ag1309
ag2179
ag23
ag1397
ag3311
ag3108
ag1561
ag2188
ag2872
ag629
ag3172
ag120
ag2561
ag2796
ag3691
ag2445
ag944
ag228
ag1238
ag2805
ag2313
ag1695
ag922
ag2041
ag2649
ag371
ag1889
ag3365
ag1700
ag1572
ag1098
ag3071
ag1091
ag276
ag2298
ag2408
ag399
ag3149
ag3705
ag1301
ag2877
ag2552
ag958
ag105
ag3226
ag3590
ag642
ag3398
ag2696
ag401
ag2942
ag3429
ag1095
ag3556
ag100
ag3174
ag952
ag1120
ag1841
ag69
ag777
ag2598
ag1901
ag3010
ag567
ag2158
ag1719
ag352
ag683
ag967
ag3197
ag525
ag1306
ag398
ag27
ag3372
ag1141
ag3421
ag1165
ag725
ag937
ag428
ag3216
ag3041
ag2579
ag837
ag1215
ag3249
ag2721
ag3289
ag2301
ag722
ag1433
ag3494
ag894
ag2377
ag3144
ag641
ag2682
ag1986
ag3352
ag941
ag2410
ag2322
ag3695
ag310
ag2862
ag1994
ag1932
ag797
ag869
ag1073
ag765
ag20
ag227
ag483
ag113
ag2784
ag3155
ag1106
ag3427
ag2692
ag696
ag3597
ag700
ag316
ag2039
ag3358
ag2487
ag3101
ag2688
ag440
ag3267
ag436
ag1576
ag1336
ag1681
ag3113
ag232
ag3199
ag2316
ag2662
ag1177
ag2755
ag3536
ag3065
ag531
ag2532
ag1651
aVi
ag2177
ag3702
ag372
ag900
ag963
ag1549
ag1524
ag3589
ag1871
ag553
ag1486
ag269
ag124
ag2567
ag84
ag2134
ag3027
ag2490
ag260
ag2672
ag3721
ag2888
ag3667
ag1987
ag1159
ag2690
ag2683
ag1753
ag3227
ag1196
ag3686
ag2342
ag305
ag3349
ag672
ag3170
ag472
ag1540
ag2401
ag2843
ag1782
ag2772
ag1979
ag3265
ag1390
ag3736
ag2697
ag239
ag526
ag1381
ag3286
ag2687
ag2149
ag1307
ag3319
ag750
ag2566
ag1495
ag1940
ag411
ag1498
ag1675
ag1109
ag2202
ag1760
ag200
ag2902
ag2075
ag3668
ag2010
ag921
ag1318
ag1546
ag33
ag3129
ag1445
ag3651
ag595
ag3693
ag3045
ag2324
ag2647
ag199
ag3194
ag2941
ag1137
ag3040
ag694
ag3261
ag304
ag655
ag2693
ag1138
ag3630
ag3552
ag779
ag419
ag1816
ag2087
ag1768
ag1082
ag3104
ag1793
ag2196
ag1075
ag3213
ag3661
ag2827
ag2869
ag2588
ag554
ag2641
ag558
ag1515
ag3220
ag945
ag2124
ag759
ag810
ag2262
ag2770
ag3679
ag360
ag1080
ag1745
ag834
ag2793
ag2747
ag2849
ag3049
ag45
ag1575
ag2706
ag2689
ag634
ag2135
ag2218
ag1823
ag1142
ag2738
ag1181
ag728
ag2305
ag2292
ag3054
ag2062
ag2253
ag1977
ag3193
ag1534
ag3084
ag1880
ag3252
ag2633
ag2479
ag3247
ag444
ag2609
ag830
ag1280
ag583
ag3305
ag1693
ag2483
ag1018
ag499
ag717
ag3326
ag318
ag1267
ag1599
ag1488
ag1383
ag3411
ag860
ag1100
ag987
ag356
ag1144
ag173
ag3280
ag807
ag3373
ag2960
ag3716
ag1616
ag2389
ag3433
ag1808
ag2895
ag2397
ag2988
ag2247
ag2779
ag859
ag52
ag1506
ag3514
ag3467
ag1507
ag785
ag1398
ag1894
ag491
ag414
ag2844
ag3704
ag951
ag520
ag3173
ag3158
ag1471
ag286
ag3142
ag2353
ag2454
ag3062
ag1685
ag1679
ag3609
ag1124
ag2339
ag2701
ag891
ag2740
ag3076
ag577
ag1522
ag2114
ag573
ag329
ag1451
ag2886
ag180
ag1837
ag3351
ag1585
ag1708
ag949
ag3462
ag1039
ag662
ag1780
ag3138
ag1725
ag1157
ag3431
ag3401
ag2887
ag2767
ag2064
ag271
ag1481
ag1273
ag1740
ag2249
ag1236
ag3453
ag1618
ag3168
ag2211
ag1015
ag1317
ag2147
ag3003
ag3678
ag2327
ag1380
ag2411
ag3166
ag1104
ag324
ag1429
ag1235
ag505
ag2571
ag3584
ag2083
ag2505
ag2493
ag2027
ag1151
ag2130
ag1079
ag2329
ag2884
ag2889
ag1089
ag1454
ag3215
ag435
ag1266
ag3161
ag1872
ag2817
ag710
ag3241
aa.