(lp1
Vyes
p2
aVno
p3
aV1
aVmale
p4
aVblack
p5
aVfemale
p6
aV2
aVwhite
p7
aVsimple
p8
aVblue
p9
aVred
p10
aVyellow
p11
aVtable
p12
aVshort
p13
aVwall
p14
aV3
aVbrown
p15
aVcommonly
p16
aVday
p17
aVgolden
p18
aVfriend
p19
aVopponent
p20
aVgreen
p21
aV4
aVmedium
p22
aVtrousers
p23
aVgray
p24
aVdance
p25
aVtree
p26
aVdifficulty
p27
aVindoor
p28
aVdifficult
p29
aVaudience
p30
aVsecurity
p31
aVshort hair
p32
aVsecondary
p33
aVmatch
p34
aVoutdoor
p35
aVmirror
p36
aVgym
p37
aVfemale sex
p38
aVgrassland
p39
aVleft hand
p40
aVdrum
p41
aVlawn
p42
aVright hand
p43
aVlong
p44
aVplay ball
p45
aVplay game
p46
aVdanger
p47
aVleft
p48
aVdiving
p49
aVhigh
p50
aVdaytime
p51
aVskiing
p52
aVrun up
p53
aVpink
p54
aVjeans
p55
aV5
aVorange
p56
aVhouse
p57
aVglasses
p58
aVeasily
p59
aVcircular
p60
aVprotect head
p61
aVwood
p62
aVsea
p63
aVroad
p64
aVreferee
p65
aVcourt
p66
aVsummer
p67
aVshort sleeve
p68
aVcommon
p69
aVchair
p70
aVplayground
p71
aVjump
p72
aVsurfing
p73
aVsunny
p74
aVlong hair
p75
aVring
p76
aVteammate
p77
aVsunny day
p78
aVdangerous
p79
aVpads
p80
aVclean
p81
aVsmoking
p82
aVwatch
p83
aV6
aVground
p84
aVbeauty
p85
aVdog
p86
aVhat
p87
aVplay football
p88
aVdoor
p89
aVcurly hair
p90
aVkitchen
p91
aVright
p92
aVpool
p93
aVrectangle
p94
aVintroduction
p95
aVbodybuilding
p96
aVgoal
p97
aVautomobile
p98
aVglove
p99
aVpurple
p100
aVwindow
p101
aVrunning
p102
aVweightlifting
p103
aVhappy
p104
aVcurly
p105
aVhome
p106
aVwater
p107
aVsquare
p108
aVcabinet
p109
aVvehicle
p110
aVrunway
p111
aVsofa
p112
aVrun
p113
aVhorse
p114
aVexercise
p115
aVgym shoes
p116
aVcircle
p117
aVstage
p118
aVsunglasses
p119
aVroom
p120
aVwinter
p121
aVstraight hair
p122
aV7
aVpeaked cap
p123
aVriding
p124
aVhelmet
p125
aVswimming pool
p126
aVrowing
p127
aVnight
p128
aVcook
p129
aVsquash
p130
aVfall
p131
aVsand
p132
aVriver
p133
aVlong sleeves
p134
aVrotate
p135
aVphysical exercise
p136
aVpartner
p137
aVeasy
p138
aVstand
p139
aVplay
p140
aVexplain
p141
aVswimming
p142
aVrelax
p143
aVenclosure
p144
aVeasy to understand
p145
aVmicrophone
p146
aVplay guitar
p147
aVdrink
p148
aVplay piano
p149
aVspeech
p150
aVdrift
p151
aVsnow land
p152
aVplay tennis
p153
aVbicycle
p154
aVnecklace
p155
aVwash hands
p156
aVwalk
p157
aVbrush
p158
aVspectator seats
p159
aVroof
p160
aVhigh jump
p161
aVrest
p162
aVlower
p163
aVslide
p164
aVtattoo
p165
aVmore difficult
p166
aVplay volleyball
p167
aVserve
p168
aVperform
p169
aVsquat
p170
aVpeople
p171
aVbow
p172
aVswing
p173
aVlow
p174
aVweed
p175
aVlong jump
p176
aVnail polish
p177
aVskateboarding
p178
aVdisplay
p179
aVglass
p180
aVcoach
p181
aVhaircut
p182
aVraise hand
p183
aVjump up
p184
aVmountain
p185
aVstraight
p186
aVhigher
p187
aVcheer
p188
aVtug of war
p189
aVwallpaper
p190
aVcurtain
p191
aVbathtub
p192
aVthrow ball
p193
aVsmile
p194
aVpreparation
p195
aVaim
p196
aVboard
p197
aVbullfight
p198
aVcar
p199
aVmake up
p200
aVpark
p201
aVplay violin
p202
aVbed
p203
aVpiano
p204
aVgymnastics
p205
aVsafe
p206
aVsilver
p207
aVt shirt
p208
aVmotion
p209
aVtrailing ground
p210
aVplay table tennis
p211
aVbracelet
p212
aVfamily
p213
aVbarbell
p214
aV8
aVfly kite
p215
aVwave
p216
aVcomb hair
p217
aVsnow
p218
aVtelevision
p219
aVfloor
p220
aVskate
p221
aVboy
p222
aVstand up
p223
aVbeautiful
p224
aVcolleague
p225
aVrope skipping
p226
aVshot put
p227
aVcomputer
p228
aVfencing
p229
aVbunker
p230
aVspeak
p231
aVpommeled horse
p232
aVsharpening
p233
aVbrush shoes
p234
aVbowling
p235
aVtrack
p236
aVcurling
p237
aVexplain detail
p238
aVcarpet
p239
aVfence
p240
aVwine dressing
p241
aVflute
p242
aVarchery
p243
aVcleaning
p244
aVdenim
p245
aVshaving
p246
aVnetwork
p247
aVplay accordion
p248
aVtarget
p249
aVcar wash
p250
aVbalance
p251
aVpolo
p252
aVcrack on speed
p253
aVearring
p254
aVgrass
p255
aVwashing
p256
aVshovel snow
p257
aVchat
p258
aVwrestling
p259
aVmake cake
p260
aVtrain
p261
aVslider
p262
aVpole vault
p263
aVfitness equipment
p264
aVbalance beam
p265
aVparallel bar
p266
aVsurf board
p267
aVcamel
p268
aVblow sax
p269
aVsimpler
p270
aVladder
p271
aVhoodie
p272
aViron clothes
p273
aVtake exercise
p274
aVplay hockey
p275
aVbeach
p276
aVscreen
p277
aVshirt
p278
aVstart
p279
aVchristmas tree
p280
aVcut nail
p281
aVclapping
p282
aVplay bumper car
p283
aVrefrigerator
p284
aVreduce friction
p285
aVwipe glass
p286
aVrope
p287
aVwash clothes
p288
aVbroadcast news
p289
aVlamp
p290
aVkindling wood
p291
aVsandy beach
p292
aVwater polo
p293
aVfishing
p294
aVbrush wall
p295
aVplay basketball
p296
aVride camel
p297
aVdiscus throw
p298
aVleather shoes
p299
aVshave
p300
aVcat
p301
aVride motorcycle
p302
aVcelebrate
p303
aVturn around
p304
aVtowel
p305
aVbungee jumping
p306
aVprotect eye
p307
aVstairs
p308
aVcatch ball
p309
aVbrush paint
p310
aVkeep clean
p311
aVboxing
p312
aVspray paint
p313
aVentertainment
p314
aVyard
p315
aVshelf
p316
aVphotograph
p317
aVfall down
p318
aVpainting
p319
aVsuperb
p320
aVcomb ones hair
p321
aVroller skating
p322
aVwelding
p323
aVinterview
p324
aVnumber card
p325
aVstadium
p326
aVwater tap
p327
aVwrist wrestling
p328
aVincrease friction
p329
aVwear shoe
p330
aVdancing partner
p331
aVkayaking
p332
aVwrist guard
p333
aVbumper car
p334
aVfirewood
p335
aVhula hoop
p336
aVnatatorium
p337
aVriver water
p338
aVbathe dog
p339
aVgargle
p340
aVknit sweater
p341
aVsponge pad
p342
aVboots
p343
aVsing
p344
aVpull rope
p345
aVshovel
p346
aVsquatting
p347
aVworktop
p348
aVball net
p349
aVdrive car
p350
aVlake
p351
aVski
p352
aVhost
p353
aVbasketball box
p354
aVexcited
p355
aVslackline
p356
aVrock climbing
p357
aVshoot
p358
aVplay baseball
p359
aVfitness
p360
aVtake interview
p361
aVconvenient
p362
aVbar
p363
aVdrink water
p364
aVmagnesia powder
p365
aVtreadmill
p366
aVcowboy
p367
aVget ready
p368
aVleave
p369
aVplay magic cube
p370
aVlie down
p371
aVtraining
p372
aVwindow curtains
p373
aVperformance
p374
aVguitar
p375
aVwear gloves
p376
aVpaly game
p377
aVignition
p378
aVembrace
p379
aVplay music
p380
aVasymmetrical bars
p381
aVcooking bench
p382
aVtoilet
p383
aVspouse
p384
aVshake hand
p385
aVwoman
p386
aVsit down
p387
aVvest
p388
aVvolleyball
p389
aVrepair roof
p390
aVtable tennis
p391
aVdarts
p392
aVfire
p393
aVdecorating christmas tree
p394
aVclap hands
p395
aVusa
p396
aVski field
p397
aVplay musical instrument
p398
aVdraw
p399
aVstable
p400
aVpick up ball
p401
aVsafer
p402
aVgoalkeeper
p403
aVstimulate
p404
aVscarf
p405
aVplay billiards
p406
aVeat ice cream
p407
aVwrist watch
p408
aVapplause
p409
aVbartender
p410
aVplay slide
p411
aVtoy
p412
aVcattle
p413
aVexpress excitement
p414
aVplay instrument
p415
aVstart game
p416
aVpeel
p417
aVkeep warm
p418
aVtennis
p419
aVballet
p420
aVnon slip
p421
aVtool
p422
aVman
p423
aVapron
p424
aVironing board
p425
aVfor sake of beauty
p426
aVhockey
p427
aVtoothpaste
p428
aVset cow
p429
aVgo fishing
p430
aVmask
p431
aVhand sink
p432
aVdress
p433
aVswimsuit
p434
aVsnow removal
p435
aVsafety hat
p436
aVhard
p437
aVflower
p438
aVhealth
p439
aVplay tai chi
p440
aVblock
p441
aVbrushing
p442
aVshoe polish
p443
aVride
p444
aVbend
p445
aVmake hairstyle
p446
aVmother and son
p447
aVbeard
p448
aVshuttlecock
p449
aVthrow hammer
p450
aVbrush teeth
p451
aVlattice
p452
aVdance hip hop
p453
aVride on bicycle
p454
aVcut grass
p455
aVjump higher
p456
aVstudio
p457
aVmachine
p458
aVmartial arts
p459
aVmake sandwich
p460
aVscissors
p461
aVintroduction of products
p462
aVtire changing
p463
aVmetal
p464
aVsail
p465
aVplay harmonica
p466
aVphoto
p467
aVseaside
p468
aVcook dish
p469
aVadvertise
p470
aVincrease inertia
p471
aVice
p472
aVcourtesy
p473
aVtable football
p474
aVice hockey
p475
aVfootball
p476
aVbelly dance
p477
aVheadset
p478
aVdrum kit
p479
aVhold barbell
p480
aVlicensing
p481
aVtile
p482
aVtalk
p483
aVshoes
p484
aVwarm up
p485
aVrake
p486
aVplay with sand
p487
aVplastic
p488
aVwash face
p489
aVsit up and sit up
p490
aVsumo
p491
aVspeed up
p492
aVbucket
p493
aVreduce center of gravity
p494
aVassemble bicycle
p495
aVrubber
p496
aVfield
p497
aVgambling
p498
aVpass ball
p499
aVfloor tile
p500
aVcompanion
p501
aVcylindrical
p502
aVpommel horse
p503
aVflag
p504
aVhit ball
p505
aVsunscreen
p506
aVspeedboat
p507
aVthrowing darts
p508
aVsit up
p509
aVpaper
p510
aVprepare food
p511
aVfootball field
p512
aVsweeping leaves
p513
aVrazor
p514
aVcleaner
p515
aVcommentary
p516
aVscavenging leaves
p517
aVcement
p518
aVstainless steel
p519
aVbasketball gym
p520
aVback
p521
aVbounce
p522
aVjump farther
p523
aVbasketball court
p524
aVellipse
p525
aVposter
p526
aVlemon
p527
aVpaddle
p528
aVdiscus throwing
p529
aVthrow spear
p530
aVdrink beer
p531
aVtake shower
p532
aVcustomer
p533
aVplate
p534
aVear studs
p535
aVpractice
p536
aVshaving cream
p537
aVkeep health
p538
aVclassroom
p539
aVblack and white
p540
aVtumbling
p541
aVcleaning leaves
p542
aVblower
p543
aVeat
p544
aVsmooth
p545
aVfallen leaves
p546
aVrailing
p547
aVmusic
p548
aVwalk dog
p549
aVhair drier
p550
aVoven
p551
aVceiling
p552
aVpaving floor
p553
aVcutting
p554
aV11
p555
aV10
p556
aVbag
p557
aVhammer
p558
aVhobby
p559
aVbeer
p560
aVeradicator
p561
aVgoggles
p562
aVfarther
p563
aVhandshake
p564
aVhelp
p565
aVblow ones hair
p566
aVtrampoline
p567
aVclean mouth
p568
aVexplain action
p569
aVprevent
p570
aVline up
p571
aVsomersault
p572
aVsailboat
p573
aVshave legs
p574
aVbraid
p575
aVgirl
p576
aVbullring
p577
aVparking lot
p578
aVbrush ones teeth
p579
aVbroadcast
p580
aVsax
p581
aVequipment
p582
aVpumpkin
p583
aVrestroom
p584
aVhand lotion
p585
aVdance classroom
p586
aVmake drink
p587
aVplay sax
p588
aVhand ring
p589
aVclean up
p590
aVdoll
p591
aVstone
p592
aVdirty
p593
aVyacht
p594
aVwashing machine
p595
aVexpress happiness
p596
aVchipping potatoes
p597
aVautumn
p598
aVmake food
p599
aVgood
p600
aVelectric welding
p601
aVprevent injury
p602
aVrestaurant
p603
aVlie
p604
aVsandals
p605
aVexhibition
p606
aVland
p607
aVwipe
p608
aVsandbag
p609
aVaccumulating force
p610
aVtriangle
p611
aVsit
p612
aVmotorcycle
p613
aVshower room
p614
aVcupboard
p615
aVdown by sally gardens
p616
aVdishwashing
p617
aVdo food
p618
aVaudiences stand
p619
aVaccordion
p620
aVbroom
p621
aVdipping pigment
p622
aVlaugh
p623
aVnet bar
p624
aVsanitation
p625
aVpick up
p626
aVshooting
p627
aVnod
p628
aVlay cement
p629
aVfall into water
p630
aVmake pumpkin lanterns
p631
aVleatherwear
p632
aVpedaling
p633
aVfitness coach
p634
aVcricket
p635
aVbald head
p636
aVsports equipment
p637
aVtaekwondo
p638
aVturn somersault
p639
aVwater tank
p640
aVslipper
p641
aVclothes
p642
aVreporter
p643
aVplay football on table
p644
aVathletic wear
p645
aVdecorating tree
p646
aVpaint bucket
p647
aVflat belt
p648
aV9
aVship turned over
p649
aVstimulus
p650
aVsmoke ring
p651
aVmaster
p652
aVmake salad
p653
aVwrists
p654
aVwipe hands
p655
aVcolorful
p656
aVblack race
p657
aVchina
p658
aVbasin
p659
aVchild
p660
aVlight head
p661
aVstraight line
p662
aVlife jacket
p663
aVsteps
p664
aVcarving
p665
aVshisha
p666
aVpractice boxing
p667
aVship
p668
aVwear contact lenses
p669
aVclimb stairs
p670
aVtakeoff
p671
aVknife stone
p672
aVsmearing
p673
aVto catch ball
p674
aVmarket
p675
aVclean desk
p676
aVbasket
p677
aVcold
p678
aVcontrol direction
p679
aVintroduce
p680
aVbathing animals
p681
aVball table
p682
aVpursuit of stimulation
p683
aVinverted cleaning agent
p684
aVinvigorate health
p685
aVfork
p686
aVhead
p687
aVwalking
p688
aVtrot
p689
aVwatch game
p690
aVpacking box
p691
aVaudience cheered
p692
aVs
aVpot
p693
aVpole
p694
aVstandard
p695
aVcanoe
p696
aVevening
p697
aVmake preparatory action
p698
aVclimbing
p699
aVnail clipper
p700
aVmop
p701
aVweave hair
p702
aVblow hair
p703
aVprotect yourself
p704
aVpersonnel
p705
aVglass door
p706
aVopen arms
p707
aVclock
p708
aVstool
p709
aVstick
p710
aVpool table
p711
aVstir
p712
aVmake cookie
p713
aVplay sand
p714
aVbicycle race
p715
aVstripe
p716
aVrefresh
p717
aVavoid injury
p718
aVdrifting
p719
aVwhite man
p720
aVblack man
p721
aVberet
p722
aVprotect hand
p723
aVvacuum cleaner
p724
aVlying
p725
aVprotect knee
p726
aVplay ladder
p727
aVclimb
p728
aVjavelin throw
p729
aVapplauded
p730
aVpotted plant
p731
aVbasketball stands
p732
aVsuit
p733
aVcloth
p734
aVtennis court
p735
aVopen mouth
p736
aVwater spray
p737
aVbike repair
p738
aVgatekeepers
p739
aVcrew cut
p740
aVtake part
p741
aVtie hair
p742
aVskirt
p743
aVbungee
p744
aVmove
p745
aVpedal puller
p746
aVice block
p747
aVdisplay results
p748
aVget o pro
p749
aVfor safety
p750
aVflushing
p751
aVprevent falling
p752
aVice surface
p753
aVaccompaniment
p754
aVopen faucet
p755
aVeardrop
p756
aVput on shoes
p757
aVnotebook computer
p758
aVplay dodge ball
p759
aVtent
p760
aVbeat ball
p761
aVmake fruit juice
p762
aVaudience applauded
p763
aVbar counter
p764
aVball
p765
aVhit higher
p766
aVmake biscuits
p767
aVavoid
p768
aVrock
p769
aVcut fruit
p770
aVbookshelf
p771
aVbrother and sister
p772
aVsleep
p773
aVslipping
p774
aVwave hand
p775
aVshoelace
p776
aVstreet
p777
aVnet
p778
aVshave dog
p779
aVwoolen hat
p780
aVtie cow
p781
aVphone
p782
aVcarvings pumpkin
p783
aVviolin
p784
aVend
p785
aVear piercing
p786
aVknitted scarf
p787
aVgreet
p788
aVcheese
p789
aVblowing harmonica
p790
aVdishware
p791
aVcroquet
p792
aVsplit
p793
aVmanicure
p794
aVlift foot
p795
aVfilling
p796
aVtight trousers
p797
aVsafety
p798
aVclimb up stairs
p799
aVdelicious
p800
aVmanicure for cat
p801
aVnoodle
p802
aVcrowd
p803
aVblow dry hair
p804
aVpersonality
p805
aVcushion
p806
aVhip hop
p807
aVprotection
p808
aVpose
p809
aVspit
p810
aVcylinder
p811
aVcanoeing
p812
aVplayer
p813
aVwheel
p814
aVrain
p815
aVhand
p816
aVtrack and field ground
p817
aVblow flute
p818
aVtrophy
p819
aVfight
p820
aVfitness ball
p821
aVchopping wood
p822
aVshake body
p823
aVwash ones face
p824
aVpick up cup
p825
aVjump house
p826
aVwine cabinet
p827
aVwindow shades
p828
aVshoe rack
p829
aVstart of the game
p830
aVpillow
p831
aVtake out
p832
aVcap
p833
aVprepare for posture
p834
aVearphone
p835
aVdrawing line
p836
aVcleaning tank
p837
aVguarantee safety
p838
aVsweep floor
p839
aVturn magic cube
p840
aVdisplacement pressure
p841
aVinteresting
p842
aVpractice martial arts
p843
aVcanada
p844
aVwash hair
p845
aVtake off coat
p846
aVcement floor
p847
aVprojectile electronic organ
p848
aVmarathon
p849
aVplay bungee jumping
p850
aVdrive
p851
aVaxe
p852
aVshot
p853
aVscoreboard
p854
aVdo test
p855
aVmove forward
p856
aVincrease speed
p857
aVplay curling
p858
aVdiver
p859
aVplunge into water
p860
aVchopping firewood
p861
aVnursing bicycle
p862
aVpush disc game
p863
aVpush disc
p864
aVpick ball
p865
aVcarton
p866
aVpunches
p867
aVbowl
p868
aVthree step jump
p869
aVdodge ball
p870
aVsunshade
p871
aVcompetition
p872
aVweightlifter
p873
aVpackage
p874
aVtraining ground
p875
aVring finger
p876
aVprepare
p877
aVwait for
p878
aVspringboard
p879
aVclear weather
p880
aVchristmas hat
p881
aVjuggling
p882
aVwind whistle
p883
aVtrash
p884
aVsafety rope
p885
aVdiving platform
p886
aVsound
p887
aVstand straight
p888
aVhammer throw
p889
aVlovely
p890
aVlemon juice
p891
aVcowboy hat
p892
aVwipe face
p893
aVclimbing ladder
p894
aVjump down
p895
aVvideo end
p896
aVchallenging
p897
aVlighting
p898
aVice curling
p899
aVwearing mask
p900
aVc
aVmake pastries
p901
aVfoot
p902
aVcut paper
p903
aVbiscuits
p904
aVsingle cauda
p905
aVfish
p906
aVoil
p907
aVsalute
p908
aVbald
p909
aVhair belt
p910
aVbushes
p911
aVshoeshine oil
p912
aVwatch tv
p913
aVstore
p914
aVprotect face
p915
aVhotel
p916
aVsteering wheel
p917
aVrecording
p918
aVplay sailboat
p919
aVprotective hand
p920
aVmother and daughter
p921
aVpeel potato
p922
aVblender
p923
aVreach out
p924
aVlift axe
p925
aVclosestool
p926
aVjilt rope
p927
aVwebbed feet
p928
aVbaseball
p929
aVsky
p930
aVbadminton
p931
aVdipping nail polish
p932
aVgrab ball
p933
aVskilled
p934
aVput in water
p935
aVhigh five
p936
aVgroup photo
p937
aVflat
p938
aVseabed
p939
aVclear leaves
p940
aVeating
p941
aVpreparatory action
p942
aVannular
p943
aVopen machine
p944
aVrepair
p945
aVgo round
p946
aVwear life jacket
p947
aVclimbing wall
p948
aVright eye
p949
aVcompetitor
p950
aVdesert
p951
aVwristband
p952
aVdecorating
p953
aVknife
p954
aVplaymate
p955
aVprotective net
p956
aVsmear foam
p957
aVleg
p958
aVoil reverse
p959
aVbrush car
p960
aVgrab rope
p961
aVwear lenses
p962
aVput in oven
p963
aVcamera
p964
aVwater connection
p965
aVlay down
p966
aVhalf squat
p967
aVpelvic
p968
aVforest
p969
aVanimal
p970
aVeat something
p971
aVmake preparation
p972
aVleft foot
p973
aVsplint
p974
aVmobile phone
p975
aVshow your hand
p976
aVbackwards
p977
aVpowerful
p978
aVsnowfield
p979
aVwear sunscreen
p980
aVcut up vegetables
p981
aVsmall dog
p982
aVpipe
p983
aVtable tennis table
p984
aVmake lanterns
p985
aVbedroom
p986
aVtire
p987
aVpruning trees
p988
aVh
aVhandstand
p989
aS'UNK'
p990
a.